ARM GAS  C:\Users\sajibu\AppData\Local\Temp\ccNKBSfh.s 			page 1


   1              		.syntax unified
   2              		.cpu cortex-m3
   3              		.fpu softvfp
   4              		.eabi_attribute 20, 1
   5              		.eabi_attribute 21, 1
   6              		.eabi_attribute 23, 3
   7              		.eabi_attribute 24, 1
   8              		.eabi_attribute 25, 1
   9              		.eabi_attribute 26, 1
  10              		.eabi_attribute 30, 1
  11              		.eabi_attribute 34, 1
  12              		.eabi_attribute 18, 4
  13              		.thumb
  14              		.file	"cyfitter_cfg.c"
  15              		.text
  16              	.Ltext0:
  17              		.cfi_sections	.debug_frame
  18              		.section	.text.CyClockStartupError,"ax",%progbits
  19              		.align	2
  20              		.thumb
  21              		.thumb_func
  22              		.type	CyClockStartupError, %function
  23              	CyClockStartupError:
  24              	.LFB3:
  25              		.file 1 "Generated_Source\\PSoC5\\cyfitter_cfg.c"
   1:Generated_Source\PSoC5/cyfitter_cfg.c **** /*******************************************************************************
   2:Generated_Source\PSoC5/cyfitter_cfg.c **** * File Name: cyfitter_cfg.c
   3:Generated_Source\PSoC5/cyfitter_cfg.c **** * 
   4:Generated_Source\PSoC5/cyfitter_cfg.c **** * PSoC Creator  4.0 Update 1
   5:Generated_Source\PSoC5/cyfitter_cfg.c **** *
   6:Generated_Source\PSoC5/cyfitter_cfg.c **** * Description:
   7:Generated_Source\PSoC5/cyfitter_cfg.c **** * This file contains device initialization code.
   8:Generated_Source\PSoC5/cyfitter_cfg.c **** * Except for the user defined sections in CyClockStartupError(), this file should not be modified.
   9:Generated_Source\PSoC5/cyfitter_cfg.c **** * This file is automatically generated by PSoC Creator.
  10:Generated_Source\PSoC5/cyfitter_cfg.c **** *
  11:Generated_Source\PSoC5/cyfitter_cfg.c **** ********************************************************************************
  12:Generated_Source\PSoC5/cyfitter_cfg.c **** * Copyright (c) 2007-2016 Cypress Semiconductor.  All rights reserved.
  13:Generated_Source\PSoC5/cyfitter_cfg.c **** * You may use this file only in accordance with the license, terms, conditions, 
  14:Generated_Source\PSoC5/cyfitter_cfg.c **** * disclaimers, and limitations in the end user license agreement accompanying 
  15:Generated_Source\PSoC5/cyfitter_cfg.c **** * the software package with which this file was provided.
  16:Generated_Source\PSoC5/cyfitter_cfg.c **** ********************************************************************************/
  17:Generated_Source\PSoC5/cyfitter_cfg.c **** 
  18:Generated_Source\PSoC5/cyfitter_cfg.c **** #include <string.h>
  19:Generated_Source\PSoC5/cyfitter_cfg.c **** #include "cytypes.h"
  20:Generated_Source\PSoC5/cyfitter_cfg.c **** #include "cydevice_trm.h"
  21:Generated_Source\PSoC5/cyfitter_cfg.c **** #include "cyfitter.h"
  22:Generated_Source\PSoC5/cyfitter_cfg.c **** #include "CyLib.h"
  23:Generated_Source\PSoC5/cyfitter_cfg.c **** #include "cyfitter_cfg.h"
  24:Generated_Source\PSoC5/cyfitter_cfg.c **** #include "cyapicallbacks.h"
  25:Generated_Source\PSoC5/cyfitter_cfg.c **** 
  26:Generated_Source\PSoC5/cyfitter_cfg.c **** #define CY_NEED_CYCLOCKSTARTUPERROR 1
  27:Generated_Source\PSoC5/cyfitter_cfg.c **** 
  28:Generated_Source\PSoC5/cyfitter_cfg.c **** 
  29:Generated_Source\PSoC5/cyfitter_cfg.c **** #if defined(__GNUC__) || defined(__ARMCC_VERSION)
  30:Generated_Source\PSoC5/cyfitter_cfg.c ****     #define CYPACKED 
  31:Generated_Source\PSoC5/cyfitter_cfg.c ****     #define CYPACKED_ATTR __attribute__ ((packed))
  32:Generated_Source\PSoC5/cyfitter_cfg.c ****     #define CYALIGNED __attribute__ ((aligned))
ARM GAS  C:\Users\sajibu\AppData\Local\Temp\ccNKBSfh.s 			page 2


  33:Generated_Source\PSoC5/cyfitter_cfg.c ****     #define CY_CFG_UNUSED __attribute__ ((unused))
  34:Generated_Source\PSoC5/cyfitter_cfg.c ****     #ifndef CY_CFG_SECTION
  35:Generated_Source\PSoC5/cyfitter_cfg.c ****         #define CY_CFG_SECTION __attribute__ ((section(".psocinit")))
  36:Generated_Source\PSoC5/cyfitter_cfg.c ****     #endif
  37:Generated_Source\PSoC5/cyfitter_cfg.c ****     
  38:Generated_Source\PSoC5/cyfitter_cfg.c ****     #if defined(__ARMCC_VERSION)
  39:Generated_Source\PSoC5/cyfitter_cfg.c ****         #define CY_CFG_MEMORY_BARRIER() __memory_changed()
  40:Generated_Source\PSoC5/cyfitter_cfg.c ****     #else
  41:Generated_Source\PSoC5/cyfitter_cfg.c ****         #define CY_CFG_MEMORY_BARRIER() __sync_synchronize()
  42:Generated_Source\PSoC5/cyfitter_cfg.c ****     #endif
  43:Generated_Source\PSoC5/cyfitter_cfg.c ****     
  44:Generated_Source\PSoC5/cyfitter_cfg.c **** #elif defined(__ICCARM__)
  45:Generated_Source\PSoC5/cyfitter_cfg.c ****     #include <intrinsics.h>
  46:Generated_Source\PSoC5/cyfitter_cfg.c **** 
  47:Generated_Source\PSoC5/cyfitter_cfg.c ****     #define CYPACKED __packed
  48:Generated_Source\PSoC5/cyfitter_cfg.c ****     #define CYPACKED_ATTR 
  49:Generated_Source\PSoC5/cyfitter_cfg.c ****     #define CYALIGNED _Pragma("data_alignment=4")
  50:Generated_Source\PSoC5/cyfitter_cfg.c ****     #define CY_CFG_UNUSED _Pragma("diag_suppress=Pe177")
  51:Generated_Source\PSoC5/cyfitter_cfg.c ****     #define CY_CFG_SECTION _Pragma("location=\".psocinit\"")
  52:Generated_Source\PSoC5/cyfitter_cfg.c ****     
  53:Generated_Source\PSoC5/cyfitter_cfg.c ****     #define CY_CFG_MEMORY_BARRIER() __DMB()
  54:Generated_Source\PSoC5/cyfitter_cfg.c ****     
  55:Generated_Source\PSoC5/cyfitter_cfg.c **** #else
  56:Generated_Source\PSoC5/cyfitter_cfg.c ****     #error Unsupported toolchain
  57:Generated_Source\PSoC5/cyfitter_cfg.c **** #endif
  58:Generated_Source\PSoC5/cyfitter_cfg.c **** 
  59:Generated_Source\PSoC5/cyfitter_cfg.c **** 
  60:Generated_Source\PSoC5/cyfitter_cfg.c **** CY_CFG_UNUSED
  61:Generated_Source\PSoC5/cyfitter_cfg.c **** static void CYMEMZERO(void *s, size_t n);
  62:Generated_Source\PSoC5/cyfitter_cfg.c **** CY_CFG_UNUSED
  63:Generated_Source\PSoC5/cyfitter_cfg.c **** static void CYMEMZERO(void *s, size_t n)
  64:Generated_Source\PSoC5/cyfitter_cfg.c **** {
  65:Generated_Source\PSoC5/cyfitter_cfg.c **** 	(void)memset(s, 0, n);
  66:Generated_Source\PSoC5/cyfitter_cfg.c **** }
  67:Generated_Source\PSoC5/cyfitter_cfg.c **** CY_CFG_UNUSED
  68:Generated_Source\PSoC5/cyfitter_cfg.c **** static void CYCONFIGCPY(void *dest, const void *src, size_t n);
  69:Generated_Source\PSoC5/cyfitter_cfg.c **** CY_CFG_UNUSED
  70:Generated_Source\PSoC5/cyfitter_cfg.c **** static void CYCONFIGCPY(void *dest, const void *src, size_t n)
  71:Generated_Source\PSoC5/cyfitter_cfg.c **** {
  72:Generated_Source\PSoC5/cyfitter_cfg.c **** 	(void)memcpy(dest, src, n);
  73:Generated_Source\PSoC5/cyfitter_cfg.c **** }
  74:Generated_Source\PSoC5/cyfitter_cfg.c **** CY_CFG_UNUSED
  75:Generated_Source\PSoC5/cyfitter_cfg.c **** static void CYCONFIGCPYCODE(void *dest, const void *src, size_t n);
  76:Generated_Source\PSoC5/cyfitter_cfg.c **** CY_CFG_UNUSED
  77:Generated_Source\PSoC5/cyfitter_cfg.c **** static void CYCONFIGCPYCODE(void *dest, const void *src, size_t n)
  78:Generated_Source\PSoC5/cyfitter_cfg.c **** {
  79:Generated_Source\PSoC5/cyfitter_cfg.c **** 	(void)memcpy(dest, src, n);
  80:Generated_Source\PSoC5/cyfitter_cfg.c **** }
  81:Generated_Source\PSoC5/cyfitter_cfg.c **** 
  82:Generated_Source\PSoC5/cyfitter_cfg.c **** 
  83:Generated_Source\PSoC5/cyfitter_cfg.c **** 
  84:Generated_Source\PSoC5/cyfitter_cfg.c **** 
  85:Generated_Source\PSoC5/cyfitter_cfg.c **** /* Clock startup error codes                                                   */
  86:Generated_Source\PSoC5/cyfitter_cfg.c **** #define CYCLOCKSTART_NO_ERROR    0u
  87:Generated_Source\PSoC5/cyfitter_cfg.c **** #define CYCLOCKSTART_XTAL_ERROR  1u
  88:Generated_Source\PSoC5/cyfitter_cfg.c **** #define CYCLOCKSTART_32KHZ_ERROR 2u
  89:Generated_Source\PSoC5/cyfitter_cfg.c **** #define CYCLOCKSTART_PLL_ERROR   3u
ARM GAS  C:\Users\sajibu\AppData\Local\Temp\ccNKBSfh.s 			page 3


  90:Generated_Source\PSoC5/cyfitter_cfg.c **** 
  91:Generated_Source\PSoC5/cyfitter_cfg.c **** 
  92:Generated_Source\PSoC5/cyfitter_cfg.c **** #ifdef CY_NEED_CYCLOCKSTARTUPERROR
  93:Generated_Source\PSoC5/cyfitter_cfg.c **** /*******************************************************************************
  94:Generated_Source\PSoC5/cyfitter_cfg.c **** * Function Name: CyClockStartupError
  95:Generated_Source\PSoC5/cyfitter_cfg.c **** ********************************************************************************
  96:Generated_Source\PSoC5/cyfitter_cfg.c **** * Summary:
  97:Generated_Source\PSoC5/cyfitter_cfg.c **** *  If an error is encountered during clock configuration (crystal startup error,
  98:Generated_Source\PSoC5/cyfitter_cfg.c **** *  PLL lock error, etc.), the system will end up here.  Unless reimplemented by
  99:Generated_Source\PSoC5/cyfitter_cfg.c **** *  the customer, this function will stop in an infinite loop.
 100:Generated_Source\PSoC5/cyfitter_cfg.c **** *
 101:Generated_Source\PSoC5/cyfitter_cfg.c **** * Parameters:
 102:Generated_Source\PSoC5/cyfitter_cfg.c **** *   void
 103:Generated_Source\PSoC5/cyfitter_cfg.c **** *
 104:Generated_Source\PSoC5/cyfitter_cfg.c **** * Return:
 105:Generated_Source\PSoC5/cyfitter_cfg.c **** *   void
 106:Generated_Source\PSoC5/cyfitter_cfg.c **** *
 107:Generated_Source\PSoC5/cyfitter_cfg.c **** *******************************************************************************/
 108:Generated_Source\PSoC5/cyfitter_cfg.c **** CY_CFG_UNUSED
 109:Generated_Source\PSoC5/cyfitter_cfg.c **** static void CyClockStartupError(uint8 errorCode);
 110:Generated_Source\PSoC5/cyfitter_cfg.c **** CY_CFG_UNUSED
 111:Generated_Source\PSoC5/cyfitter_cfg.c **** static void CyClockStartupError(uint8 errorCode)
 112:Generated_Source\PSoC5/cyfitter_cfg.c **** {
  26              		.loc 1 112 0
  27              		.cfi_startproc
  28              		@ Volatile: function does not return.
  29              		@ args = 0, pretend = 0, frame = 0
  30              		@ frame_needed = 0, uses_anonymous_args = 0
  31              		@ link register save eliminated.
  32              	.LVL0:
  33              	.L2:
 113:Generated_Source\PSoC5/cyfitter_cfg.c ****     /* To remove the compiler warning if errorCode not used.                */
 114:Generated_Source\PSoC5/cyfitter_cfg.c ****     errorCode = errorCode;
 115:Generated_Source\PSoC5/cyfitter_cfg.c **** 
 116:Generated_Source\PSoC5/cyfitter_cfg.c ****     /* If we have a clock startup error (bad MHz crystal, PLL lock, etc.),  */
 117:Generated_Source\PSoC5/cyfitter_cfg.c ****     /* we will end up here to allow the customer to implement something to  */
 118:Generated_Source\PSoC5/cyfitter_cfg.c ****     /* deal with the clock condition.                                       */
 119:Generated_Source\PSoC5/cyfitter_cfg.c **** 
 120:Generated_Source\PSoC5/cyfitter_cfg.c **** #ifdef CY_CFG_CLOCK_STARTUP_ERROR_CALLBACK
 121:Generated_Source\PSoC5/cyfitter_cfg.c **** 	CY_CFG_Clock_Startup_ErrorCallback();
 122:Generated_Source\PSoC5/cyfitter_cfg.c **** #else
 123:Generated_Source\PSoC5/cyfitter_cfg.c **** 	/*  If not using CY_CFG_CLOCK_STARTUP_ERROR_CALLBACK, place your clock startup code here. */
 124:Generated_Source\PSoC5/cyfitter_cfg.c ****     /* `#START CyClockStartupError` */
 125:Generated_Source\PSoC5/cyfitter_cfg.c **** 
 126:Generated_Source\PSoC5/cyfitter_cfg.c **** 
 127:Generated_Source\PSoC5/cyfitter_cfg.c **** 
 128:Generated_Source\PSoC5/cyfitter_cfg.c ****     /* `#END` */
 129:Generated_Source\PSoC5/cyfitter_cfg.c **** 
 130:Generated_Source\PSoC5/cyfitter_cfg.c ****     /* If nothing else, stop here since the clocks have not started         */
 131:Generated_Source\PSoC5/cyfitter_cfg.c ****     /* correctly.                                                           */
 132:Generated_Source\PSoC5/cyfitter_cfg.c ****     while(1) {}
  34              		.loc 1 132 0 discriminator 1
  35 0000 FEE7     		b	.L2
  36              		.cfi_endproc
  37              	.LFE3:
  38              		.size	CyClockStartupError, .-CyClockStartupError
  39 0002 00BF     		.section	.text.cfg_write_bytes32,"ax",%progbits
ARM GAS  C:\Users\sajibu\AppData\Local\Temp\ccNKBSfh.s 			page 4


  40              		.align	2
  41              		.thumb
  42              		.thumb_func
  43              		.type	cfg_write_bytes32, %function
  44              	cfg_write_bytes32:
  45              	.LFB4:
 133:Generated_Source\PSoC5/cyfitter_cfg.c **** #endif /* CY_CFG_CLOCK_STARTUP_ERROR_CALLBACK */ 
 134:Generated_Source\PSoC5/cyfitter_cfg.c **** }
 135:Generated_Source\PSoC5/cyfitter_cfg.c **** #endif
 136:Generated_Source\PSoC5/cyfitter_cfg.c **** 
 137:Generated_Source\PSoC5/cyfitter_cfg.c **** #define CY_CFG_BASE_ADDR_COUNT 33u
 138:Generated_Source\PSoC5/cyfitter_cfg.c **** CYPACKED typedef struct
 139:Generated_Source\PSoC5/cyfitter_cfg.c **** {
 140:Generated_Source\PSoC5/cyfitter_cfg.c **** 	uint8 offset;
 141:Generated_Source\PSoC5/cyfitter_cfg.c **** 	uint8 value;
 142:Generated_Source\PSoC5/cyfitter_cfg.c **** } CYPACKED_ATTR cy_cfg_addrvalue_t;
 143:Generated_Source\PSoC5/cyfitter_cfg.c **** 
 144:Generated_Source\PSoC5/cyfitter_cfg.c **** #define cy_cfg_addr_table ((const uint32 CYFAR *)0x48000000u)
 145:Generated_Source\PSoC5/cyfitter_cfg.c **** #define cy_cfg_data_table ((const cy_cfg_addrvalue_t CYFAR *)0x48000084u)
 146:Generated_Source\PSoC5/cyfitter_cfg.c **** 
 147:Generated_Source\PSoC5/cyfitter_cfg.c **** /* UDB_0_4_0_CONFIG Address: CYDEV_UCFG_B0_P6_U1_BASE Size (bytes): 128 */
 148:Generated_Source\PSoC5/cyfitter_cfg.c **** #define BS_UDB_0_4_0_CONFIG_VAL ((const uint8 CYFAR *)0x480004B8u)
 149:Generated_Source\PSoC5/cyfitter_cfg.c **** 
 150:Generated_Source\PSoC5/cyfitter_cfg.c **** /* IOPINS0_8 Address: CYREG_PRT15_DR Size (bytes): 10 */
 151:Generated_Source\PSoC5/cyfitter_cfg.c **** #define BS_IOPINS0_8_VAL ((const uint8 CYFAR *)0x48000538u)
 152:Generated_Source\PSoC5/cyfitter_cfg.c **** 
 153:Generated_Source\PSoC5/cyfitter_cfg.c **** /* IOPINS0_1 Address: CYREG_PRT1_DM0 Size (bytes): 8 */
 154:Generated_Source\PSoC5/cyfitter_cfg.c **** #define BS_IOPINS0_1_VAL ((const uint8 CYFAR *)0x48000544u)
 155:Generated_Source\PSoC5/cyfitter_cfg.c **** 
 156:Generated_Source\PSoC5/cyfitter_cfg.c **** /* IOPINS0_2 Address: CYREG_PRT2_DM0 Size (bytes): 8 */
 157:Generated_Source\PSoC5/cyfitter_cfg.c **** #define BS_IOPINS0_2_VAL ((const uint8 CYFAR *)0x4800054Cu)
 158:Generated_Source\PSoC5/cyfitter_cfg.c **** 
 159:Generated_Source\PSoC5/cyfitter_cfg.c **** /* IOPINS0_5 Address: CYREG_PRT5_DM0 Size (bytes): 8 */
 160:Generated_Source\PSoC5/cyfitter_cfg.c **** #define BS_IOPINS0_5_VAL ((const uint8 CYFAR *)0x48000554u)
 161:Generated_Source\PSoC5/cyfitter_cfg.c **** 
 162:Generated_Source\PSoC5/cyfitter_cfg.c **** /* IOPINS0_6 Address: CYREG_PRT6_DR Size (bytes): 10 */
 163:Generated_Source\PSoC5/cyfitter_cfg.c **** #define BS_IOPINS0_6_VAL ((const uint8 CYFAR *)0x4800055Cu)
 164:Generated_Source\PSoC5/cyfitter_cfg.c **** 
 165:Generated_Source\PSoC5/cyfitter_cfg.c **** /* CYDEV_CLKDIST_ACFG0_CFG0 Address: CYREG_CLKDIST_ACFG0_CFG0 Size (bytes): 4 */
 166:Generated_Source\PSoC5/cyfitter_cfg.c **** #define BS_CYDEV_CLKDIST_ACFG0_CFG0_VAL ((const uint8 CYFAR *)0x48000568u)
 167:Generated_Source\PSoC5/cyfitter_cfg.c **** 
 168:Generated_Source\PSoC5/cyfitter_cfg.c **** 
 169:Generated_Source\PSoC5/cyfitter_cfg.c **** /*******************************************************************************
 170:Generated_Source\PSoC5/cyfitter_cfg.c **** * Function Name: cfg_write_bytes32
 171:Generated_Source\PSoC5/cyfitter_cfg.c **** ********************************************************************************
 172:Generated_Source\PSoC5/cyfitter_cfg.c **** * Summary:
 173:Generated_Source\PSoC5/cyfitter_cfg.c **** *  This function is used for setting up the chip configuration areas that
 174:Generated_Source\PSoC5/cyfitter_cfg.c **** *  contain relatively sparse data.
 175:Generated_Source\PSoC5/cyfitter_cfg.c **** *
 176:Generated_Source\PSoC5/cyfitter_cfg.c **** * Parameters:
 177:Generated_Source\PSoC5/cyfitter_cfg.c **** *   void
 178:Generated_Source\PSoC5/cyfitter_cfg.c **** *
 179:Generated_Source\PSoC5/cyfitter_cfg.c **** * Return:
 180:Generated_Source\PSoC5/cyfitter_cfg.c **** *   void
 181:Generated_Source\PSoC5/cyfitter_cfg.c **** *
 182:Generated_Source\PSoC5/cyfitter_cfg.c **** *******************************************************************************/
 183:Generated_Source\PSoC5/cyfitter_cfg.c **** static void cfg_write_bytes32(const uint32 addr_table[], const cy_cfg_addrvalue_t data_table[]);
ARM GAS  C:\Users\sajibu\AppData\Local\Temp\ccNKBSfh.s 			page 5


 184:Generated_Source\PSoC5/cyfitter_cfg.c **** static void cfg_write_bytes32(const uint32 addr_table[], const cy_cfg_addrvalue_t data_table[])
 185:Generated_Source\PSoC5/cyfitter_cfg.c **** {
  46              		.loc 1 185 0
  47              		.cfi_startproc
  48              		@ args = 0, pretend = 0, frame = 0
  49              		@ frame_needed = 0, uses_anonymous_args = 0
  50              		@ link register save eliminated.
  51              	.LVL1:
  52 0000 F0B4     		push	{r4, r5, r6, r7}
  53              		.cfi_def_cfa_offset 16
  54              		.cfi_offset 4, -16
  55              		.cfi_offset 5, -12
  56              		.cfi_offset 6, -8
  57              		.cfi_offset 7, -4
  58              	.LVL2:
 186:Generated_Source\PSoC5/cyfitter_cfg.c **** 	/* For 32-bit little-endian architectures */
 187:Generated_Source\PSoC5/cyfitter_cfg.c **** 	uint32 i, j = 0u;
  59              		.loc 1 187 0
  60 0002 0022     		movs	r2, #0
 188:Generated_Source\PSoC5/cyfitter_cfg.c **** 	for (i = 0u; i < CY_CFG_BASE_ADDR_COUNT; i++)
  61              		.loc 1 188 0
  62 0004 1746     		mov	r7, r2
  63 0006 11E0     		b	.L4
  64              	.LVL3:
  65              	.L7:
  66              	.LBB2:
 189:Generated_Source\PSoC5/cyfitter_cfg.c **** 	{
 190:Generated_Source\PSoC5/cyfitter_cfg.c **** 		uint32 baseAddr = addr_table[i];
  67              		.loc 1 190 0
  68 0008 50F82760 		ldr	r6, [r0, r7, lsl #2]
  69              	.LVL4:
 191:Generated_Source\PSoC5/cyfitter_cfg.c **** 		uint8 count = (uint8)baseAddr;
  70              		.loc 1 191 0
  71 000c F3B2     		uxtb	r3, r6
  72              	.LVL5:
 192:Generated_Source\PSoC5/cyfitter_cfg.c **** 		baseAddr &= 0xFFFFFF00u;
  73              		.loc 1 192 0
  74 000e 26F0FF06 		bic	r6, r6, #255
  75              	.LVL6:
 193:Generated_Source\PSoC5/cyfitter_cfg.c **** 		while (count != 0u)
  76              		.loc 1 193 0
  77 0012 08E0     		b	.L5
  78              	.L6:
 194:Generated_Source\PSoC5/cyfitter_cfg.c **** 		{
 195:Generated_Source\PSoC5/cyfitter_cfg.c **** 			CY_SET_XTND_REG8((void CYFAR *)(baseAddr + data_table[j].offset), data_table[j].value);
  79              		.loc 1 195 0
  80 0014 01EB4205 		add	r5, r1, r2, lsl #1
  81 0018 11F81240 		ldrb	r4, [r1, r2, lsl #1]	@ zero_extendqisi2
  82 001c 6D78     		ldrb	r5, [r5, #1]	@ zero_extendqisi2
  83 001e A555     		strb	r5, [r4, r6]
 196:Generated_Source\PSoC5/cyfitter_cfg.c **** 			j++;
  84              		.loc 1 196 0
  85 0020 0132     		adds	r2, r2, #1
  86              	.LVL7:
 197:Generated_Source\PSoC5/cyfitter_cfg.c **** 			count--;
  87              		.loc 1 197 0
  88 0022 013B     		subs	r3, r3, #1
ARM GAS  C:\Users\sajibu\AppData\Local\Temp\ccNKBSfh.s 			page 6


  89              	.LVL8:
  90 0024 DBB2     		uxtb	r3, r3
  91              	.LVL9:
  92              	.L5:
 193:Generated_Source\PSoC5/cyfitter_cfg.c **** 		{
  93              		.loc 1 193 0
  94 0026 002B     		cmp	r3, #0
  95 0028 F4D1     		bne	.L6
  96              	.LBE2:
 188:Generated_Source\PSoC5/cyfitter_cfg.c **** 	{
  97              		.loc 1 188 0 discriminator 2
  98 002a 0137     		adds	r7, r7, #1
  99              	.LVL10:
 100              	.L4:
 188:Generated_Source\PSoC5/cyfitter_cfg.c **** 	{
 101              		.loc 1 188 0 is_stmt 0 discriminator 1
 102 002c 202F     		cmp	r7, #32
 103 002e EBD9     		bls	.L7
 198:Generated_Source\PSoC5/cyfitter_cfg.c **** 		}
 199:Generated_Source\PSoC5/cyfitter_cfg.c **** 	}
 200:Generated_Source\PSoC5/cyfitter_cfg.c **** }
 104              		.loc 1 200 0 is_stmt 1
 105 0030 F0BC     		pop	{r4, r5, r6, r7}
 106              		.cfi_restore 7
 107              		.cfi_restore 6
 108              		.cfi_restore 5
 109              		.cfi_restore 4
 110              		.cfi_def_cfa_offset 0
 111              	.LVL11:
 112 0032 7047     		bx	lr
 113              		.cfi_endproc
 114              	.LFE4:
 115              		.size	cfg_write_bytes32, .-cfg_write_bytes32
 116              		.section	.text.AnalogSetDefault,"ax",%progbits
 117              		.align	2
 118              		.thumb
 119              		.thumb_func
 120              		.type	AnalogSetDefault, %function
 121              	AnalogSetDefault:
 122              	.LFB6:
 201:Generated_Source\PSoC5/cyfitter_cfg.c **** 
 202:Generated_Source\PSoC5/cyfitter_cfg.c **** /*******************************************************************************
 203:Generated_Source\PSoC5/cyfitter_cfg.c **** * Function Name: ClockSetup
 204:Generated_Source\PSoC5/cyfitter_cfg.c **** ********************************************************************************
 205:Generated_Source\PSoC5/cyfitter_cfg.c **** *
 206:Generated_Source\PSoC5/cyfitter_cfg.c **** * Summary:
 207:Generated_Source\PSoC5/cyfitter_cfg.c **** *  Performs the initialization of all of the clocks in the device based on the
 208:Generated_Source\PSoC5/cyfitter_cfg.c **** *  settings in the Clock tab of the DWR.  This includes enabling the requested
 209:Generated_Source\PSoC5/cyfitter_cfg.c **** *  clocks and setting the necessary dividers to produce the desired frequency. 
 210:Generated_Source\PSoC5/cyfitter_cfg.c **** *
 211:Generated_Source\PSoC5/cyfitter_cfg.c **** * Parameters:
 212:Generated_Source\PSoC5/cyfitter_cfg.c **** *  void
 213:Generated_Source\PSoC5/cyfitter_cfg.c **** *
 214:Generated_Source\PSoC5/cyfitter_cfg.c **** * Return:
 215:Generated_Source\PSoC5/cyfitter_cfg.c **** *  void
 216:Generated_Source\PSoC5/cyfitter_cfg.c **** *
 217:Generated_Source\PSoC5/cyfitter_cfg.c **** *******************************************************************************/
ARM GAS  C:\Users\sajibu\AppData\Local\Temp\ccNKBSfh.s 			page 7


 218:Generated_Source\PSoC5/cyfitter_cfg.c **** static void ClockSetup(void);
 219:Generated_Source\PSoC5/cyfitter_cfg.c **** static void ClockSetup(void)
 220:Generated_Source\PSoC5/cyfitter_cfg.c **** {
 221:Generated_Source\PSoC5/cyfitter_cfg.c **** 	uint32 timeout;
 222:Generated_Source\PSoC5/cyfitter_cfg.c **** 	uint8 pllLock;
 223:Generated_Source\PSoC5/cyfitter_cfg.c **** 
 224:Generated_Source\PSoC5/cyfitter_cfg.c **** 
 225:Generated_Source\PSoC5/cyfitter_cfg.c **** 	/* Configure Digital Clocks based on settings from Clock DWR */
 226:Generated_Source\PSoC5/cyfitter_cfg.c **** 	CY_SET_XTND_REG16((void CYFAR *)(CYREG_CLKDIST_DCFG0_CFG0), 0x0000u);
 227:Generated_Source\PSoC5/cyfitter_cfg.c **** 	CY_SET_XTND_REG8((void CYFAR *)(CYREG_CLKDIST_DCFG0_CFG0 + 0x2u), 0x50u);
 228:Generated_Source\PSoC5/cyfitter_cfg.c **** 	CY_SET_XTND_REG16((void CYFAR *)(CYREG_CLKDIST_DCFG1_CFG0), 0x0017u);
 229:Generated_Source\PSoC5/cyfitter_cfg.c **** 	CY_SET_XTND_REG8((void CYFAR *)(CYREG_CLKDIST_DCFG1_CFG0 + 0x2u), 0x18u);
 230:Generated_Source\PSoC5/cyfitter_cfg.c **** 	CY_SET_XTND_REG16((void CYFAR *)(CYREG_CLKDIST_DCFG2_CFG0), 0x0019u);
 231:Generated_Source\PSoC5/cyfitter_cfg.c **** 	CY_SET_XTND_REG8((void CYFAR *)(CYREG_CLKDIST_DCFG2_CFG0 + 0x2u), 0x18u);
 232:Generated_Source\PSoC5/cyfitter_cfg.c **** 	CY_SET_XTND_REG16((void CYFAR *)(CYREG_CLKDIST_DCFG3_CFG0), 0x4E1Fu);
 233:Generated_Source\PSoC5/cyfitter_cfg.c **** 	CY_SET_XTND_REG8((void CYFAR *)(CYREG_CLKDIST_DCFG3_CFG0 + 0x2u), 0x1Bu);
 234:Generated_Source\PSoC5/cyfitter_cfg.c **** 
 235:Generated_Source\PSoC5/cyfitter_cfg.c **** 	/* Configure Analog Clocks based on settings from Clock DWR */
 236:Generated_Source\PSoC5/cyfitter_cfg.c **** 	CYCONFIGCPY((void CYFAR *)(CYREG_CLKDIST_ACFG0_CFG0), (const void CYFAR *)(BS_CYDEV_CLKDIST_ACFG0_
 237:Generated_Source\PSoC5/cyfitter_cfg.c **** 
 238:Generated_Source\PSoC5/cyfitter_cfg.c **** 	/* Configure ILO based on settings from Clock DWR */
 239:Generated_Source\PSoC5/cyfitter_cfg.c **** 	CY_SET_XTND_REG8((void CYFAR *)(CYREG_SLOWCLK_ILO_CR0), 0x06u);
 240:Generated_Source\PSoC5/cyfitter_cfg.c **** 
 241:Generated_Source\PSoC5/cyfitter_cfg.c **** 	/* Configure XTAL based on settings from Clock DWR */
 242:Generated_Source\PSoC5/cyfitter_cfg.c **** 	CY_SET_XTND_REG16((void CYFAR *)(CYREG_FASTCLK_XMHZ_CFG0), 0x3313u);
 243:Generated_Source\PSoC5/cyfitter_cfg.c **** 	CY_SET_XTND_REG8((void CYFAR *)(CYREG_FASTCLK_XMHZ_CSR), 0x05u);
 244:Generated_Source\PSoC5/cyfitter_cfg.c **** 	/* Wait up to 130000us for the XTAL to lock */
 245:Generated_Source\PSoC5/cyfitter_cfg.c **** 	CY_GET_XTND_REG8((void CYFAR *)CYREG_FASTCLK_XMHZ_CSR);
 246:Generated_Source\PSoC5/cyfitter_cfg.c **** 	for (timeout = 130000u / 10u; (timeout > 0u) && ((CY_GET_XTND_REG8((void CYFAR *)CYREG_FASTCLK_XMH
 247:Generated_Source\PSoC5/cyfitter_cfg.c **** 	{ 
 248:Generated_Source\PSoC5/cyfitter_cfg.c **** 		
 249:Generated_Source\PSoC5/cyfitter_cfg.c **** 		CyDelayCycles(10u * 48u); /* Delay 10us based on 48MHz clock */
 250:Generated_Source\PSoC5/cyfitter_cfg.c **** 	}
 251:Generated_Source\PSoC5/cyfitter_cfg.c **** 	if (timeout == 0u)
 252:Generated_Source\PSoC5/cyfitter_cfg.c **** 	{
 253:Generated_Source\PSoC5/cyfitter_cfg.c **** 		CyClockStartupError(CYCLOCKSTART_XTAL_ERROR);
 254:Generated_Source\PSoC5/cyfitter_cfg.c **** 	}
 255:Generated_Source\PSoC5/cyfitter_cfg.c **** 	CY_SET_XTND_REG8((void CYFAR *)(CYREG_CLKDIST_CR), 0x40u);
 256:Generated_Source\PSoC5/cyfitter_cfg.c **** 
 257:Generated_Source\PSoC5/cyfitter_cfg.c **** 	/* Configure IMO based on settings from Clock DWR */
 258:Generated_Source\PSoC5/cyfitter_cfg.c **** 	CY_SET_XTND_REG8((void CYFAR *)(CYREG_FASTCLK_IMO_CR), 0x70u);
 259:Generated_Source\PSoC5/cyfitter_cfg.c **** 
 260:Generated_Source\PSoC5/cyfitter_cfg.c **** 	/* Configure PLL based on settings from Clock DWR */
 261:Generated_Source\PSoC5/cyfitter_cfg.c **** 	CY_SET_XTND_REG16((void CYFAR *)(CYREG_FASTCLK_PLL_P), 0x0708u);
 262:Generated_Source\PSoC5/cyfitter_cfg.c **** 	CY_SET_XTND_REG16((void CYFAR *)(CYREG_FASTCLK_PLL_CFG0), 0x1251u);
 263:Generated_Source\PSoC5/cyfitter_cfg.c **** 	/* Wait up to 250us for the PLL to lock */
 264:Generated_Source\PSoC5/cyfitter_cfg.c **** 	pllLock = 0u;
 265:Generated_Source\PSoC5/cyfitter_cfg.c **** 	for (timeout = 250u / 10u; (timeout > 0u) && (pllLock != 0x03u); timeout--)
 266:Generated_Source\PSoC5/cyfitter_cfg.c **** 	{ 
 267:Generated_Source\PSoC5/cyfitter_cfg.c **** 		pllLock = 0x03u & ((uint8)((uint8)pllLock << 1) | ((CY_GET_XTND_REG8((void CYFAR *)CYREG_FASTCLK_
 268:Generated_Source\PSoC5/cyfitter_cfg.c **** 		CyDelayCycles(10u * 48u); /* Delay 10us based on 48MHz clock */
 269:Generated_Source\PSoC5/cyfitter_cfg.c **** 	}
 270:Generated_Source\PSoC5/cyfitter_cfg.c **** 	/* If we ran out of time the PLL didn't lock so go to the error function */
 271:Generated_Source\PSoC5/cyfitter_cfg.c **** 	if (timeout == 0u)
 272:Generated_Source\PSoC5/cyfitter_cfg.c **** 	{
 273:Generated_Source\PSoC5/cyfitter_cfg.c **** 		CyClockStartupError(CYCLOCKSTART_PLL_ERROR);
 274:Generated_Source\PSoC5/cyfitter_cfg.c **** 	}
ARM GAS  C:\Users\sajibu\AppData\Local\Temp\ccNKBSfh.s 			page 8


 275:Generated_Source\PSoC5/cyfitter_cfg.c **** 
 276:Generated_Source\PSoC5/cyfitter_cfg.c **** 	/* Configure Bus/Master Clock based on settings from Clock DWR */
 277:Generated_Source\PSoC5/cyfitter_cfg.c **** 	CY_SET_XTND_REG16((void CYFAR *)(CYREG_CLKDIST_MSTR0), 0x0100u);
 278:Generated_Source\PSoC5/cyfitter_cfg.c **** 	CY_SET_XTND_REG8((void CYFAR *)(CYREG_CLKDIST_MSTR0), 0x07u);
 279:Generated_Source\PSoC5/cyfitter_cfg.c **** 	CY_SET_XTND_REG8((void CYFAR *)(CYREG_CLKDIST_BCFG0), 0x00u);
 280:Generated_Source\PSoC5/cyfitter_cfg.c **** 	CY_SET_XTND_REG8((void CYFAR *)(CYREG_CLKDIST_BCFG2), 0x48u);
 281:Generated_Source\PSoC5/cyfitter_cfg.c **** 	CY_SET_XTND_REG8((void CYFAR *)(CYREG_CLKDIST_MSTR0), 0x00u);
 282:Generated_Source\PSoC5/cyfitter_cfg.c **** 
 283:Generated_Source\PSoC5/cyfitter_cfg.c **** 	/* Configure USB Clock based on settings from Clock DWR */
 284:Generated_Source\PSoC5/cyfitter_cfg.c **** 	CY_SET_XTND_REG8((void CYFAR *)(CYREG_CLKDIST_UCFG), 0x00u);
 285:Generated_Source\PSoC5/cyfitter_cfg.c **** 	CY_SET_XTND_REG8((void CYFAR *)(CYREG_CLKDIST_LD), 0x02u);
 286:Generated_Source\PSoC5/cyfitter_cfg.c **** 	CY_SET_XTND_REG8((void CYFAR *)(CYREG_CLKDIST_DLY1), 0x04u);
 287:Generated_Source\PSoC5/cyfitter_cfg.c **** 
 288:Generated_Source\PSoC5/cyfitter_cfg.c **** 	CY_SET_XTND_REG8((void CYFAR *)(CYREG_PM_ACT_CFG2), ((CY_GET_XTND_REG8((void CYFAR *)CYREG_PM_ACT_
 289:Generated_Source\PSoC5/cyfitter_cfg.c **** 	CY_SET_XTND_REG8((void CYFAR *)(CYREG_PM_ACT_CFG1), ((CY_GET_XTND_REG8((void CYFAR *)CYREG_PM_ACT_
 290:Generated_Source\PSoC5/cyfitter_cfg.c **** 	CY_SET_XTND_REG8((void CYFAR *)(CYREG_PM_ACT_CFG0), ((CY_GET_XTND_REG8((void CYFAR *)CYREG_PM_ACT_
 291:Generated_Source\PSoC5/cyfitter_cfg.c **** }
 292:Generated_Source\PSoC5/cyfitter_cfg.c **** 
 293:Generated_Source\PSoC5/cyfitter_cfg.c **** 
 294:Generated_Source\PSoC5/cyfitter_cfg.c **** /* Analog API Functions */
 295:Generated_Source\PSoC5/cyfitter_cfg.c **** 
 296:Generated_Source\PSoC5/cyfitter_cfg.c **** 
 297:Generated_Source\PSoC5/cyfitter_cfg.c **** /*******************************************************************************
 298:Generated_Source\PSoC5/cyfitter_cfg.c **** * Function Name: AnalogSetDefault
 299:Generated_Source\PSoC5/cyfitter_cfg.c **** ********************************************************************************
 300:Generated_Source\PSoC5/cyfitter_cfg.c **** *
 301:Generated_Source\PSoC5/cyfitter_cfg.c **** * Summary:
 302:Generated_Source\PSoC5/cyfitter_cfg.c **** *  Sets up the analog portions of the chip to default values based on chip
 303:Generated_Source\PSoC5/cyfitter_cfg.c **** *  configuration options from the project.
 304:Generated_Source\PSoC5/cyfitter_cfg.c **** *
 305:Generated_Source\PSoC5/cyfitter_cfg.c **** * Parameters:
 306:Generated_Source\PSoC5/cyfitter_cfg.c **** *  void
 307:Generated_Source\PSoC5/cyfitter_cfg.c **** *
 308:Generated_Source\PSoC5/cyfitter_cfg.c **** * Return:
 309:Generated_Source\PSoC5/cyfitter_cfg.c **** *  void
 310:Generated_Source\PSoC5/cyfitter_cfg.c **** *
 311:Generated_Source\PSoC5/cyfitter_cfg.c **** *******************************************************************************/
 312:Generated_Source\PSoC5/cyfitter_cfg.c **** static void AnalogSetDefault(void);
 313:Generated_Source\PSoC5/cyfitter_cfg.c **** static void AnalogSetDefault(void)
 314:Generated_Source\PSoC5/cyfitter_cfg.c **** {
 123              		.loc 1 314 0
 124              		.cfi_startproc
 125              		@ args = 0, pretend = 0, frame = 0
 126              		@ frame_needed = 0, uses_anonymous_args = 0
 127              		@ link register save eliminated.
 315:Generated_Source\PSoC5/cyfitter_cfg.c **** 	uint8 bg_xover_inl_trim = CY_GET_XTND_REG8((void CYFAR *)(CYREG_FLSHID_MFG_CFG_BG_XOVER_INL_TRIM +
 128              		.loc 1 315 0
 129 0000 0A4B     		ldr	r3, .L10
 130 0002 1B78     		ldrb	r3, [r3]	@ zero_extendqisi2
 131 0004 DBB2     		uxtb	r3, r3
 132              	.LVL12:
 316:Generated_Source\PSoC5/cyfitter_cfg.c **** 	CY_SET_XTND_REG8((void CYFAR *)(CYREG_BG_DFT0), (bg_xover_inl_trim & 0x07u));
 133              		.loc 1 316 0
 134 0006 03F00701 		and	r1, r3, #7
 135 000a 094A     		ldr	r2, .L10+4
 136 000c 1170     		strb	r1, [r2]
 317:Generated_Source\PSoC5/cyfitter_cfg.c **** 	CY_SET_XTND_REG8((void CYFAR *)(CYREG_BG_DFT1), ((bg_xover_inl_trim >> 4) & 0x0Fu));
ARM GAS  C:\Users\sajibu\AppData\Local\Temp\ccNKBSfh.s 			page 9


 137              		.loc 1 317 0
 138 000e 1B09     		lsrs	r3, r3, #4
 139              	.LVL13:
 140 0010 0132     		adds	r2, r2, #1
 141 0012 1370     		strb	r3, [r2]
 318:Generated_Source\PSoC5/cyfitter_cfg.c **** 	CY_SET_XTND_REG8((void CYFAR *)CYREG_PRT6_AG, 0x20u);
 142              		.loc 1 318 0
 143 0014 2022     		movs	r2, #32
 144 0016 074B     		ldr	r3, .L10+8
 145 0018 1A70     		strb	r2, [r3]
 319:Generated_Source\PSoC5/cyfitter_cfg.c **** 	CY_SET_XTND_REG8((void CYFAR *)CYREG_DSM0_SW0, 0x02u);
 146              		.loc 1 319 0
 147 001a 0222     		movs	r2, #2
 148 001c 03F69313 		addw	r3, r3, #2451
 149 0020 1A70     		strb	r2, [r3]
 320:Generated_Source\PSoC5/cyfitter_cfg.c **** 	CY_SET_XTND_REG8((void CYFAR *)CYREG_PUMP_CR0, 0x44u);
 150              		.loc 1 320 0
 151 0022 4422     		movs	r2, #68
 152 0024 A3F28A23 		subw	r3, r3, #650
 153 0028 1A70     		strb	r2, [r3]
 154 002a 7047     		bx	lr
 155              	.L11:
 156              		.align	2
 157              	.L10:
 158 002c CF010049 		.word	1224737231
 159 0030 6E580040 		.word	1073764462
 160 0034 6D510040 		.word	1073762669
 161              		.cfi_endproc
 162              	.LFE6:
 163              		.size	AnalogSetDefault, .-AnalogSetDefault
 164              		.section	.text.CYMEMZERO,"ax",%progbits
 165              		.align	2
 166              		.thumb
 167              		.thumb_func
 168              		.type	CYMEMZERO, %function
 169              	CYMEMZERO:
 170              	.LFB0:
  64:Generated_Source\PSoC5/cyfitter_cfg.c **** 	(void)memset(s, 0, n);
 171              		.loc 1 64 0
 172              		.cfi_startproc
 173              		@ args = 0, pretend = 0, frame = 0
 174              		@ frame_needed = 0, uses_anonymous_args = 0
 175              	.LVL14:
 176 0000 08B5     		push	{r3, lr}
 177              		.cfi_def_cfa_offset 8
 178              		.cfi_offset 3, -8
 179              		.cfi_offset 14, -4
 180 0002 0A46     		mov	r2, r1
  65:Generated_Source\PSoC5/cyfitter_cfg.c **** }
 181              		.loc 1 65 0
 182 0004 0021     		movs	r1, #0
 183              	.LVL15:
 184 0006 FFF7FEFF 		bl	memset
 185              	.LVL16:
 186 000a 08BD     		pop	{r3, pc}
 187              		.cfi_endproc
 188              	.LFE0:
ARM GAS  C:\Users\sajibu\AppData\Local\Temp\ccNKBSfh.s 			page 10


 189              		.size	CYMEMZERO, .-CYMEMZERO
 190              		.section	.text.CYCONFIGCPY,"ax",%progbits
 191              		.align	2
 192              		.thumb
 193              		.thumb_func
 194              		.type	CYCONFIGCPY, %function
 195              	CYCONFIGCPY:
 196              	.LFB1:
  71:Generated_Source\PSoC5/cyfitter_cfg.c **** 	(void)memcpy(dest, src, n);
 197              		.loc 1 71 0
 198              		.cfi_startproc
 199              		@ args = 0, pretend = 0, frame = 0
 200              		@ frame_needed = 0, uses_anonymous_args = 0
 201              	.LVL17:
 202 0000 08B5     		push	{r3, lr}
 203              		.cfi_def_cfa_offset 8
 204              		.cfi_offset 3, -8
 205              		.cfi_offset 14, -4
  72:Generated_Source\PSoC5/cyfitter_cfg.c **** }
 206              		.loc 1 72 0
 207 0002 FFF7FEFF 		bl	memcpy
 208              	.LVL18:
 209 0006 08BD     		pop	{r3, pc}
 210              		.cfi_endproc
 211              	.LFE1:
 212              		.size	CYCONFIGCPY, .-CYCONFIGCPY
 213              		.section	.text.ClockSetup,"ax",%progbits
 214              		.align	2
 215              		.thumb
 216              		.thumb_func
 217              		.type	ClockSetup, %function
 218              	ClockSetup:
 219              	.LFB5:
 220:Generated_Source\PSoC5/cyfitter_cfg.c **** 	uint32 timeout;
 220              		.loc 1 220 0
 221              		.cfi_startproc
 222              		@ args = 0, pretend = 0, frame = 0
 223              		@ frame_needed = 0, uses_anonymous_args = 0
 224 0000 38B5     		push	{r3, r4, r5, lr}
 225              		.cfi_def_cfa_offset 16
 226              		.cfi_offset 3, -16
 227              		.cfi_offset 4, -12
 228              		.cfi_offset 5, -8
 229              		.cfi_offset 14, -4
 226:Generated_Source\PSoC5/cyfitter_cfg.c **** 	CY_SET_XTND_REG8((void CYFAR *)(CYREG_CLKDIST_DCFG0_CFG0 + 0x2u), 0x50u);
 230              		.loc 1 226 0
 231 0002 0022     		movs	r2, #0
 232 0004 424B     		ldr	r3, .L26
 233 0006 1A80     		strh	r2, [r3]	@ movhi
 227:Generated_Source\PSoC5/cyfitter_cfg.c **** 	CY_SET_XTND_REG16((void CYFAR *)(CYREG_CLKDIST_DCFG1_CFG0), 0x0017u);
 234              		.loc 1 227 0
 235 0008 5022     		movs	r2, #80
 236 000a 0233     		adds	r3, r3, #2
 237 000c 1A70     		strb	r2, [r3]
 228:Generated_Source\PSoC5/cyfitter_cfg.c **** 	CY_SET_XTND_REG8((void CYFAR *)(CYREG_CLKDIST_DCFG1_CFG0 + 0x2u), 0x18u);
 238              		.loc 1 228 0
 239 000e 1722     		movs	r2, #23
ARM GAS  C:\Users\sajibu\AppData\Local\Temp\ccNKBSfh.s 			page 11


 240 0010 0233     		adds	r3, r3, #2
 241 0012 1A80     		strh	r2, [r3]	@ movhi
 229:Generated_Source\PSoC5/cyfitter_cfg.c **** 	CY_SET_XTND_REG16((void CYFAR *)(CYREG_CLKDIST_DCFG2_CFG0), 0x0019u);
 242              		.loc 1 229 0
 243 0014 1823     		movs	r3, #24
 244 0016 3F4A     		ldr	r2, .L26+4
 245 0018 1370     		strb	r3, [r2]
 230:Generated_Source\PSoC5/cyfitter_cfg.c **** 	CY_SET_XTND_REG8((void CYFAR *)(CYREG_CLKDIST_DCFG2_CFG0 + 0x2u), 0x18u);
 246              		.loc 1 230 0
 247 001a 1921     		movs	r1, #25
 248 001c 0232     		adds	r2, r2, #2
 249 001e 1180     		strh	r1, [r2]	@ movhi
 231:Generated_Source\PSoC5/cyfitter_cfg.c **** 	CY_SET_XTND_REG16((void CYFAR *)(CYREG_CLKDIST_DCFG3_CFG0), 0x4E1Fu);
 250              		.loc 1 231 0
 251 0020 0232     		adds	r2, r2, #2
 252 0022 1370     		strb	r3, [r2]
 232:Generated_Source\PSoC5/cyfitter_cfg.c **** 	CY_SET_XTND_REG8((void CYFAR *)(CYREG_CLKDIST_DCFG3_CFG0 + 0x2u), 0x1Bu);
 253              		.loc 1 232 0
 254 0024 44F61F62 		movw	r2, #19999
 255 0028 3B4B     		ldr	r3, .L26+8
 256 002a 1A80     		strh	r2, [r3]	@ movhi
 233:Generated_Source\PSoC5/cyfitter_cfg.c **** 
 257              		.loc 1 233 0
 258 002c 1B22     		movs	r2, #27
 259 002e 0233     		adds	r3, r3, #2
 260 0030 1A70     		strb	r2, [r3]
 236:Generated_Source\PSoC5/cyfitter_cfg.c **** 
 261              		.loc 1 236 0
 262 0032 3A48     		ldr	r0, .L26+12
 263 0034 3A49     		ldr	r1, .L26+16
 264 0036 0422     		movs	r2, #4
 265 0038 FFF7FEFF 		bl	CYCONFIGCPY
 266              	.LVL19:
 239:Generated_Source\PSoC5/cyfitter_cfg.c **** 
 267              		.loc 1 239 0
 268 003c 0622     		movs	r2, #6
 269 003e 394B     		ldr	r3, .L26+20
 270 0040 1A70     		strb	r2, [r3]
 242:Generated_Source\PSoC5/cyfitter_cfg.c **** 	CY_SET_XTND_REG8((void CYFAR *)(CYREG_FASTCLK_XMHZ_CSR), 0x05u);
 271              		.loc 1 242 0
 272 0042 43F21332 		movw	r2, #13075
 273 0046 EE3B     		subs	r3, r3, #238
 274 0048 1A80     		strh	r2, [r3]	@ movhi
 243:Generated_Source\PSoC5/cyfitter_cfg.c **** 	/* Wait up to 130000us for the XTAL to lock */
 275              		.loc 1 243 0
 276 004a 023B     		subs	r3, r3, #2
 277 004c 0522     		movs	r2, #5
 278 004e 1A70     		strb	r2, [r3]
 245:Generated_Source\PSoC5/cyfitter_cfg.c **** 	for (timeout = 130000u / 10u; (timeout > 0u) && ((CY_GET_XTND_REG8((void CYFAR *)CYREG_FASTCLK_XMH
 279              		.loc 1 245 0
 280 0050 1B78     		ldrb	r3, [r3]	@ zero_extendqisi2
 281              	.LVL20:
 246:Generated_Source\PSoC5/cyfitter_cfg.c **** 	{ 
 282              		.loc 1 246 0
 283 0052 43F2C824 		movw	r4, #13000
 284 0056 04E0     		b	.L17
 285              	.LVL21:
ARM GAS  C:\Users\sajibu\AppData\Local\Temp\ccNKBSfh.s 			page 12


 286              	.L19:
 249:Generated_Source\PSoC5/cyfitter_cfg.c **** 	}
 287              		.loc 1 249 0 discriminator 4
 288 0058 4FF4F070 		mov	r0, #480
 289 005c FFF7FEFF 		bl	CyDelayCycles
 290              	.LVL22:
 246:Generated_Source\PSoC5/cyfitter_cfg.c **** 	{ 
 291              		.loc 1 246 0 discriminator 4
 292 0060 013C     		subs	r4, r4, #1
 293              	.LVL23:
 294              	.L17:
 246:Generated_Source\PSoC5/cyfitter_cfg.c **** 	{ 
 295              		.loc 1 246 0 is_stmt 0 discriminator 1
 296 0062 24B1     		cbz	r4, .L18
 246:Generated_Source\PSoC5/cyfitter_cfg.c **** 	{ 
 297              		.loc 1 246 0 discriminator 3
 298 0064 304B     		ldr	r3, .L26+24
 299 0066 1B78     		ldrb	r3, [r3]	@ zero_extendqisi2
 300 0068 13F0800F 		tst	r3, #128
 301 006c F4D1     		bne	.L19
 302              	.L18:
 251:Generated_Source\PSoC5/cyfitter_cfg.c **** 	{
 303              		.loc 1 251 0 is_stmt 1
 304 006e 14B9     		cbnz	r4, .L20
 253:Generated_Source\PSoC5/cyfitter_cfg.c **** 	}
 305              		.loc 1 253 0
 306 0070 0120     		movs	r0, #1
 307 0072 FFF7FEFF 		bl	CyClockStartupError
 308              	.LVL24:
 309              	.L20:
 255:Generated_Source\PSoC5/cyfitter_cfg.c **** 
 310              		.loc 1 255 0
 311 0076 4022     		movs	r2, #64
 312 0078 4FF04023 		mov	r3, #1073758208
 313 007c 1A70     		strb	r2, [r3]
 258:Generated_Source\PSoC5/cyfitter_cfg.c **** 
 314              		.loc 1 258 0
 315 007e 7022     		movs	r2, #112
 316 0080 03F50073 		add	r3, r3, #512
 317 0084 1A70     		strb	r2, [r3]
 261:Generated_Source\PSoC5/cyfitter_cfg.c **** 	CY_SET_XTND_REG16((void CYFAR *)(CYREG_FASTCLK_PLL_CFG0), 0x1251u);
 318              		.loc 1 261 0
 319 0086 4FF4E162 		mov	r2, #1800
 320 008a 2233     		adds	r3, r3, #34
 321 008c 1A80     		strh	r2, [r3]	@ movhi
 262:Generated_Source\PSoC5/cyfitter_cfg.c **** 	/* Wait up to 250us for the PLL to lock */
 322              		.loc 1 262 0
 323 008e 41F25122 		movw	r2, #4689
 324 0092 023B     		subs	r3, r3, #2
 325 0094 1A80     		strh	r2, [r3]	@ movhi
 326              	.LVL25:
 264:Generated_Source\PSoC5/cyfitter_cfg.c **** 	for (timeout = 250u / 10u; (timeout > 0u) && (pllLock != 0x03u); timeout--)
 327              		.loc 1 264 0
 328 0096 0024     		movs	r4, #0
 265:Generated_Source\PSoC5/cyfitter_cfg.c **** 	{ 
 329              		.loc 1 265 0
 330 0098 1925     		movs	r5, #25
ARM GAS  C:\Users\sajibu\AppData\Local\Temp\ccNKBSfh.s 			page 13


 331 009a 0CE0     		b	.L21
 332              	.LVL26:
 333              	.L23:
 267:Generated_Source\PSoC5/cyfitter_cfg.c **** 		CyDelayCycles(10u * 48u); /* Delay 10us based on 48MHz clock */
 334              		.loc 1 267 0 discriminator 4
 335 009c 234B     		ldr	r3, .L26+28
 336 009e 1B78     		ldrb	r3, [r3]	@ zero_extendqisi2
 337 00a0 03F00103 		and	r3, r3, #1
 338 00a4 43EA4404 		orr	r4, r3, r4, lsl #1
 339              	.LVL27:
 340 00a8 04F00304 		and	r4, r4, #3
 341              	.LVL28:
 268:Generated_Source\PSoC5/cyfitter_cfg.c **** 	}
 342              		.loc 1 268 0 discriminator 4
 343 00ac 4FF4F070 		mov	r0, #480
 344 00b0 FFF7FEFF 		bl	CyDelayCycles
 345              	.LVL29:
 265:Generated_Source\PSoC5/cyfitter_cfg.c **** 	{ 
 346              		.loc 1 265 0 discriminator 4
 347 00b4 013D     		subs	r5, r5, #1
 348              	.LVL30:
 349              	.L21:
 265:Generated_Source\PSoC5/cyfitter_cfg.c **** 	{ 
 350              		.loc 1 265 0 is_stmt 0 discriminator 1
 351 00b6 0DB1     		cbz	r5, .L22
 265:Generated_Source\PSoC5/cyfitter_cfg.c **** 	{ 
 352              		.loc 1 265 0 discriminator 3
 353 00b8 032C     		cmp	r4, #3
 354 00ba EFD1     		bne	.L23
 355              	.L22:
 271:Generated_Source\PSoC5/cyfitter_cfg.c **** 	{
 356              		.loc 1 271 0 is_stmt 1
 357 00bc 15B9     		cbnz	r5, .L24
 273:Generated_Source\PSoC5/cyfitter_cfg.c **** 	}
 358              		.loc 1 273 0
 359 00be 0320     		movs	r0, #3
 360 00c0 FFF7FEFF 		bl	CyClockStartupError
 361              	.LVL31:
 362              	.L24:
 277:Generated_Source\PSoC5/cyfitter_cfg.c **** 	CY_SET_XTND_REG8((void CYFAR *)(CYREG_CLKDIST_MSTR0), 0x07u);
 363              		.loc 1 277 0
 364 00c4 1A4A     		ldr	r2, .L26+32
 365 00c6 4FF48073 		mov	r3, #256
 366 00ca 1380     		strh	r3, [r2]	@ movhi
 278:Generated_Source\PSoC5/cyfitter_cfg.c **** 	CY_SET_XTND_REG8((void CYFAR *)(CYREG_CLKDIST_BCFG0), 0x00u);
 367              		.loc 1 278 0
 368 00cc 0723     		movs	r3, #7
 369 00ce 1370     		strb	r3, [r2]
 279:Generated_Source\PSoC5/cyfitter_cfg.c **** 	CY_SET_XTND_REG8((void CYFAR *)(CYREG_CLKDIST_BCFG2), 0x48u);
 370              		.loc 1 279 0
 371 00d0 0023     		movs	r3, #0
 372 00d2 1849     		ldr	r1, .L26+36
 373 00d4 0B70     		strb	r3, [r1]
 280:Generated_Source\PSoC5/cyfitter_cfg.c **** 	CY_SET_XTND_REG8((void CYFAR *)(CYREG_CLKDIST_MSTR0), 0x00u);
 374              		.loc 1 280 0
 375 00d6 4820     		movs	r0, #72
 376 00d8 0231     		adds	r1, r1, #2
ARM GAS  C:\Users\sajibu\AppData\Local\Temp\ccNKBSfh.s 			page 14


 377 00da 0870     		strb	r0, [r1]
 281:Generated_Source\PSoC5/cyfitter_cfg.c **** 
 378              		.loc 1 281 0
 379 00dc 1370     		strb	r3, [r2]
 284:Generated_Source\PSoC5/cyfitter_cfg.c **** 	CY_SET_XTND_REG8((void CYFAR *)(CYREG_CLKDIST_LD), 0x02u);
 380              		.loc 1 284 0
 381 00de 0532     		adds	r2, r2, #5
 382 00e0 1370     		strb	r3, [r2]
 285:Generated_Source\PSoC5/cyfitter_cfg.c **** 	CY_SET_XTND_REG8((void CYFAR *)(CYREG_CLKDIST_DLY1), 0x04u);
 383              		.loc 1 285 0
 384 00e2 0222     		movs	r2, #2
 385 00e4 144B     		ldr	r3, .L26+40
 386 00e6 1A70     		strb	r2, [r3]
 286:Generated_Source\PSoC5/cyfitter_cfg.c **** 
 387              		.loc 1 286 0
 388 00e8 0422     		movs	r2, #4
 389 00ea 0A33     		adds	r3, r3, #10
 390 00ec 1A70     		strb	r2, [r3]
 288:Generated_Source\PSoC5/cyfitter_cfg.c **** 	CY_SET_XTND_REG8((void CYFAR *)(CYREG_PM_ACT_CFG1), ((CY_GET_XTND_REG8((void CYFAR *)CYREG_PM_ACT_
 391              		.loc 1 288 0
 392 00ee 134A     		ldr	r2, .L26+44
 393 00f0 1378     		ldrb	r3, [r2]	@ zero_extendqisi2
 394 00f2 43F00F03 		orr	r3, r3, #15
 395 00f6 1370     		strb	r3, [r2]
 289:Generated_Source\PSoC5/cyfitter_cfg.c **** 	CY_SET_XTND_REG8((void CYFAR *)(CYREG_PM_ACT_CFG0), ((CY_GET_XTND_REG8((void CYFAR *)CYREG_PM_ACT_
 396              		.loc 1 289 0
 397 00f8 013A     		subs	r2, r2, #1
 398 00fa 1378     		ldrb	r3, [r2]	@ zero_extendqisi2
 399 00fc 43F00103 		orr	r3, r3, #1
 400 0100 1370     		strb	r3, [r2]
 290:Generated_Source\PSoC5/cyfitter_cfg.c **** }
 401              		.loc 1 290 0
 402 0102 013A     		subs	r2, r2, #1
 403 0104 1378     		ldrb	r3, [r2]	@ zero_extendqisi2
 404 0106 43F08003 		orr	r3, r3, #128
 405 010a 1370     		strb	r3, [r2]
 406 010c 38BD     		pop	{r3, r4, r5, pc}
 407              	.LVL32:
 408              	.L27:
 409 010e 00BF     		.align	2
 410              	.L26:
 411 0110 80400040 		.word	1073758336
 412 0114 86400040 		.word	1073758342
 413 0118 8C400040 		.word	1073758348
 414 011c 00410040 		.word	1073758464
 415 0120 68050048 		.word	1207960936
 416 0124 00430040 		.word	1073758976
 417 0128 10420040 		.word	1073758736
 418 012c 25420040 		.word	1073758757
 419 0130 04400040 		.word	1073758212
 420 0134 06400040 		.word	1073758214
 421 0138 01400040 		.word	1073758209
 422 013c A2430040 		.word	1073759138
 423              		.cfi_endproc
 424              	.LFE5:
 425              		.size	ClockSetup, .-ClockSetup
 426              		.section	.text.SetAnalogRoutingPumps,"ax",%progbits
ARM GAS  C:\Users\sajibu\AppData\Local\Temp\ccNKBSfh.s 			page 15


 427              		.align	2
 428              		.global	SetAnalogRoutingPumps
 429              		.thumb
 430              		.thumb_func
 431              		.type	SetAnalogRoutingPumps, %function
 432              	SetAnalogRoutingPumps:
 433              	.LFB7:
 321:Generated_Source\PSoC5/cyfitter_cfg.c **** }
 322:Generated_Source\PSoC5/cyfitter_cfg.c **** 
 323:Generated_Source\PSoC5/cyfitter_cfg.c **** 
 324:Generated_Source\PSoC5/cyfitter_cfg.c **** /*******************************************************************************
 325:Generated_Source\PSoC5/cyfitter_cfg.c **** * Function Name: SetAnalogRoutingPumps
 326:Generated_Source\PSoC5/cyfitter_cfg.c **** ********************************************************************************
 327:Generated_Source\PSoC5/cyfitter_cfg.c **** *
 328:Generated_Source\PSoC5/cyfitter_cfg.c **** * Summary:
 329:Generated_Source\PSoC5/cyfitter_cfg.c **** * Enables or disables the analog pumps feeding analog routing switches.
 330:Generated_Source\PSoC5/cyfitter_cfg.c **** * Intended to be called at startup, based on the Vdda system configuration;
 331:Generated_Source\PSoC5/cyfitter_cfg.c **** * may be called during operation when the user informs us that the Vdda voltage
 332:Generated_Source\PSoC5/cyfitter_cfg.c **** * crossed the pump threshold.
 333:Generated_Source\PSoC5/cyfitter_cfg.c **** *
 334:Generated_Source\PSoC5/cyfitter_cfg.c **** * Parameters:
 335:Generated_Source\PSoC5/cyfitter_cfg.c **** *  enabled - 1 to enable the pumps, 0 to disable the pumps
 336:Generated_Source\PSoC5/cyfitter_cfg.c **** *
 337:Generated_Source\PSoC5/cyfitter_cfg.c **** * Return:
 338:Generated_Source\PSoC5/cyfitter_cfg.c **** *  void
 339:Generated_Source\PSoC5/cyfitter_cfg.c **** *
 340:Generated_Source\PSoC5/cyfitter_cfg.c **** *******************************************************************************/
 341:Generated_Source\PSoC5/cyfitter_cfg.c **** void SetAnalogRoutingPumps(uint8 enabled)
 342:Generated_Source\PSoC5/cyfitter_cfg.c **** {
 434              		.loc 1 342 0
 435              		.cfi_startproc
 436              		@ args = 0, pretend = 0, frame = 0
 437              		@ frame_needed = 0, uses_anonymous_args = 0
 438              		@ link register save eliminated.
 439              	.LVL33:
 343:Generated_Source\PSoC5/cyfitter_cfg.c **** 	uint8 regValue = CY_GET_XTND_REG8((void CYFAR *)CYREG_PUMP_CR0);
 440              		.loc 1 343 0
 441 0000 054B     		ldr	r3, .L31
 442 0002 1B78     		ldrb	r3, [r3]	@ zero_extendqisi2
 443 0004 DBB2     		uxtb	r3, r3
 444              	.LVL34:
 344:Generated_Source\PSoC5/cyfitter_cfg.c **** 	if (enabled != 0u)
 445              		.loc 1 344 0
 446 0006 10B1     		cbz	r0, .L29
 345:Generated_Source\PSoC5/cyfitter_cfg.c **** 	{
 346:Generated_Source\PSoC5/cyfitter_cfg.c **** 		regValue |= 0x22u;
 447              		.loc 1 346 0
 448 0008 43F02203 		orr	r3, r3, #34
 449              	.LVL35:
 450 000c 01E0     		b	.L30
 451              	.L29:
 347:Generated_Source\PSoC5/cyfitter_cfg.c **** 	}
 348:Generated_Source\PSoC5/cyfitter_cfg.c **** 	else
 349:Generated_Source\PSoC5/cyfitter_cfg.c **** 	{
 350:Generated_Source\PSoC5/cyfitter_cfg.c **** 		regValue &= (uint8)~0x22u;
 452              		.loc 1 350 0
 453 000e 03F0DD03 		and	r3, r3, #221
ARM GAS  C:\Users\sajibu\AppData\Local\Temp\ccNKBSfh.s 			page 16


 454              	.LVL36:
 455              	.L30:
 351:Generated_Source\PSoC5/cyfitter_cfg.c **** 	}
 352:Generated_Source\PSoC5/cyfitter_cfg.c **** 	CY_SET_XTND_REG8((void CYFAR *)CYREG_PUMP_CR0, regValue);
 456              		.loc 1 352 0
 457 0012 014A     		ldr	r2, .L31
 458 0014 1370     		strb	r3, [r2]
 459 0016 7047     		bx	lr
 460              	.L32:
 461              		.align	2
 462              	.L31:
 463 0018 76580040 		.word	1073764470
 464              		.cfi_endproc
 465              	.LFE7:
 466              		.size	SetAnalogRoutingPumps, .-SetAnalogRoutingPumps
 467              		.section	.text.ADC_AMux_Set,"ax",%progbits
 468              		.align	2
 469              		.global	ADC_AMux_Set
 470              		.thumb
 471              		.thumb_func
 472              		.type	ADC_AMux_Set, %function
 473              	ADC_AMux_Set:
 474              	.LFB8:
 353:Generated_Source\PSoC5/cyfitter_cfg.c **** }
 354:Generated_Source\PSoC5/cyfitter_cfg.c **** 
 355:Generated_Source\PSoC5/cyfitter_cfg.c **** #define CY_AMUX_UNUSED CYREG_BOOST_SR
 356:Generated_Source\PSoC5/cyfitter_cfg.c **** /* This is an implementation detail of the AMux. Code that depends on it may be
 357:Generated_Source\PSoC5/cyfitter_cfg.c ****    incompatible with other versions of PSoC Creator. */
 358:Generated_Source\PSoC5/cyfitter_cfg.c **** uint8 CYXDATA * const CYCODE ADC_AMux__addrTable[2] = {
 359:Generated_Source\PSoC5/cyfitter_cfg.c **** 	(uint8 CYXDATA *)CYREG_DSM0_SW3, 
 360:Generated_Source\PSoC5/cyfitter_cfg.c **** 	(uint8 CYXDATA *)CY_AMUX_UNUSED, 
 361:Generated_Source\PSoC5/cyfitter_cfg.c **** };
 362:Generated_Source\PSoC5/cyfitter_cfg.c **** 
 363:Generated_Source\PSoC5/cyfitter_cfg.c **** /* This is an implementation detail of the AMux. Code that depends on it may be
 364:Generated_Source\PSoC5/cyfitter_cfg.c ****    incompatible with other versions of PSoC Creator. */
 365:Generated_Source\PSoC5/cyfitter_cfg.c **** const uint8 CYCODE ADC_AMux__maskTable[2] = {
 366:Generated_Source\PSoC5/cyfitter_cfg.c **** 	0x40u, 
 367:Generated_Source\PSoC5/cyfitter_cfg.c **** 	0x00u, 
 368:Generated_Source\PSoC5/cyfitter_cfg.c **** };
 369:Generated_Source\PSoC5/cyfitter_cfg.c **** 
 370:Generated_Source\PSoC5/cyfitter_cfg.c **** /*******************************************************************************
 371:Generated_Source\PSoC5/cyfitter_cfg.c **** * Function Name: ADC_AMux_Set
 372:Generated_Source\PSoC5/cyfitter_cfg.c **** ********************************************************************************
 373:Generated_Source\PSoC5/cyfitter_cfg.c **** * Summary:
 374:Generated_Source\PSoC5/cyfitter_cfg.c **** *  This function is used to set a particular channel as active on the AMux.
 375:Generated_Source\PSoC5/cyfitter_cfg.c **** *
 376:Generated_Source\PSoC5/cyfitter_cfg.c **** * Parameters:  
 377:Generated_Source\PSoC5/cyfitter_cfg.c **** *   channel - The mux channel input to set as active
 378:Generated_Source\PSoC5/cyfitter_cfg.c **** *
 379:Generated_Source\PSoC5/cyfitter_cfg.c **** * Return:
 380:Generated_Source\PSoC5/cyfitter_cfg.c **** *   void
 381:Generated_Source\PSoC5/cyfitter_cfg.c **** *
 382:Generated_Source\PSoC5/cyfitter_cfg.c **** *******************************************************************************/
 383:Generated_Source\PSoC5/cyfitter_cfg.c **** void ADC_AMux_Set(uint8 channel)
 384:Generated_Source\PSoC5/cyfitter_cfg.c **** {
 475              		.loc 1 384 0
 476              		.cfi_startproc
ARM GAS  C:\Users\sajibu\AppData\Local\Temp\ccNKBSfh.s 			page 17


 477              		@ args = 0, pretend = 0, frame = 0
 478              		@ frame_needed = 0, uses_anonymous_args = 0
 479              		@ link register save eliminated.
 480              	.LVL37:
 385:Generated_Source\PSoC5/cyfitter_cfg.c **** 	if (channel < 2)
 481              		.loc 1 385 0
 482 0000 0128     		cmp	r0, #1
 483 0002 07D8     		bhi	.L33
 386:Generated_Source\PSoC5/cyfitter_cfg.c **** 	{
 387:Generated_Source\PSoC5/cyfitter_cfg.c **** 		*ADC_AMux__addrTable[channel] |= ADC_AMux__maskTable[channel];
 484              		.loc 1 387 0
 485 0004 044B     		ldr	r3, .L35
 486 0006 53F82020 		ldr	r2, [r3, r0, lsl #2]
 487 000a 1844     		add	r0, r0, r3
 488              	.LVL38:
 489 000c 017A     		ldrb	r1, [r0, #8]	@ zero_extendqisi2
 490 000e 1378     		ldrb	r3, [r2]	@ zero_extendqisi2
 491 0010 0B43     		orrs	r3, r3, r1
 492 0012 1370     		strb	r3, [r2]
 493              	.L33:
 494 0014 7047     		bx	lr
 495              	.L36:
 496 0016 00BF     		.align	2
 497              	.L35:
 498 0018 00000000 		.word	.LANCHOR0
 499              		.cfi_endproc
 500              	.LFE8:
 501              		.size	ADC_AMux_Set, .-ADC_AMux_Set
 502              		.section	.text.ADC_AMux_Unset,"ax",%progbits
 503              		.align	2
 504              		.global	ADC_AMux_Unset
 505              		.thumb
 506              		.thumb_func
 507              		.type	ADC_AMux_Unset, %function
 508              	ADC_AMux_Unset:
 509              	.LFB9:
 388:Generated_Source\PSoC5/cyfitter_cfg.c **** 	}
 389:Generated_Source\PSoC5/cyfitter_cfg.c **** }
 390:Generated_Source\PSoC5/cyfitter_cfg.c **** 
 391:Generated_Source\PSoC5/cyfitter_cfg.c **** /*******************************************************************************
 392:Generated_Source\PSoC5/cyfitter_cfg.c **** * Function Name: ADC_AMux_Unset
 393:Generated_Source\PSoC5/cyfitter_cfg.c **** ********************************************************************************
 394:Generated_Source\PSoC5/cyfitter_cfg.c **** * Summary:
 395:Generated_Source\PSoC5/cyfitter_cfg.c **** *  This function is used to clear a particular channel from being active on the
 396:Generated_Source\PSoC5/cyfitter_cfg.c **** *  AMux.
 397:Generated_Source\PSoC5/cyfitter_cfg.c **** *
 398:Generated_Source\PSoC5/cyfitter_cfg.c **** * Parameters:  
 399:Generated_Source\PSoC5/cyfitter_cfg.c **** *   channel - The mux channel input to mark inactive
 400:Generated_Source\PSoC5/cyfitter_cfg.c **** *
 401:Generated_Source\PSoC5/cyfitter_cfg.c **** * Return:
 402:Generated_Source\PSoC5/cyfitter_cfg.c **** *   void
 403:Generated_Source\PSoC5/cyfitter_cfg.c **** *
 404:Generated_Source\PSoC5/cyfitter_cfg.c **** *******************************************************************************/
 405:Generated_Source\PSoC5/cyfitter_cfg.c **** void ADC_AMux_Unset(uint8 channel)
 406:Generated_Source\PSoC5/cyfitter_cfg.c **** {
 510              		.loc 1 406 0
 511              		.cfi_startproc
ARM GAS  C:\Users\sajibu\AppData\Local\Temp\ccNKBSfh.s 			page 18


 512              		@ args = 0, pretend = 0, frame = 0
 513              		@ frame_needed = 0, uses_anonymous_args = 0
 514              		@ link register save eliminated.
 515              	.LVL39:
 407:Generated_Source\PSoC5/cyfitter_cfg.c **** 	if (channel < 2)
 516              		.loc 1 407 0
 517 0000 0128     		cmp	r0, #1
 518 0002 08D8     		bhi	.L37
 408:Generated_Source\PSoC5/cyfitter_cfg.c **** 	{
 409:Generated_Source\PSoC5/cyfitter_cfg.c **** 		*ADC_AMux__addrTable[channel] &= (uint8)~ADC_AMux__maskTable[channel];
 519              		.loc 1 409 0
 520 0004 044B     		ldr	r3, .L39
 521 0006 53F82020 		ldr	r2, [r3, r0, lsl #2]
 522 000a 1844     		add	r0, r0, r3
 523              	.LVL40:
 524 000c 017A     		ldrb	r1, [r0, #8]	@ zero_extendqisi2
 525 000e 1378     		ldrb	r3, [r2]	@ zero_extendqisi2
 526 0010 23EA0103 		bic	r3, r3, r1
 527 0014 1370     		strb	r3, [r2]
 528              	.L37:
 529 0016 7047     		bx	lr
 530              	.L40:
 531              		.align	2
 532              	.L39:
 533 0018 00000000 		.word	.LANCHOR0
 534              		.cfi_endproc
 535              	.LFE9:
 536              		.size	ADC_AMux_Unset, .-ADC_AMux_Unset
 537              		.section	.text.cyfitter_cfg,"ax",%progbits
 538              		.align	2
 539              		.global	cyfitter_cfg
 540              		.thumb
 541              		.thumb_func
 542              		.type	cyfitter_cfg, %function
 543              	cyfitter_cfg:
 544              	.LFB10:
 410:Generated_Source\PSoC5/cyfitter_cfg.c **** 	}
 411:Generated_Source\PSoC5/cyfitter_cfg.c **** }
 412:Generated_Source\PSoC5/cyfitter_cfg.c **** 
 413:Generated_Source\PSoC5/cyfitter_cfg.c **** 
 414:Generated_Source\PSoC5/cyfitter_cfg.c **** 
 415:Generated_Source\PSoC5/cyfitter_cfg.c **** /*******************************************************************************
 416:Generated_Source\PSoC5/cyfitter_cfg.c **** * Function Name: cyfitter_cfg
 417:Generated_Source\PSoC5/cyfitter_cfg.c **** ********************************************************************************
 418:Generated_Source\PSoC5/cyfitter_cfg.c **** * Summary:
 419:Generated_Source\PSoC5/cyfitter_cfg.c **** *  This function is called by the start-up code for the selected device. It
 420:Generated_Source\PSoC5/cyfitter_cfg.c **** *  performs all of the necessary device configuration based on the design
 421:Generated_Source\PSoC5/cyfitter_cfg.c **** *  settings.  This includes settings from the Design Wide Resources (DWR) such
 422:Generated_Source\PSoC5/cyfitter_cfg.c **** *  as Clocks and Pins as well as any component configuration that is necessary.
 423:Generated_Source\PSoC5/cyfitter_cfg.c **** *
 424:Generated_Source\PSoC5/cyfitter_cfg.c **** * Parameters:  
 425:Generated_Source\PSoC5/cyfitter_cfg.c **** *   void
 426:Generated_Source\PSoC5/cyfitter_cfg.c **** *
 427:Generated_Source\PSoC5/cyfitter_cfg.c **** * Return:
 428:Generated_Source\PSoC5/cyfitter_cfg.c **** *   void
 429:Generated_Source\PSoC5/cyfitter_cfg.c **** *
 430:Generated_Source\PSoC5/cyfitter_cfg.c **** *******************************************************************************/
ARM GAS  C:\Users\sajibu\AppData\Local\Temp\ccNKBSfh.s 			page 19


 431:Generated_Source\PSoC5/cyfitter_cfg.c **** 
 432:Generated_Source\PSoC5/cyfitter_cfg.c **** void cyfitter_cfg(void)
 433:Generated_Source\PSoC5/cyfitter_cfg.c **** {
 545              		.loc 1 433 0
 546              		.cfi_startproc
 547              		@ args = 0, pretend = 0, frame = 0
 548              		@ frame_needed = 0, uses_anonymous_args = 0
 549 0000 38B5     		push	{r3, r4, r5, lr}
 550              		.cfi_def_cfa_offset 16
 551              		.cfi_offset 3, -16
 552              		.cfi_offset 4, -12
 553              		.cfi_offset 5, -8
 554              		.cfi_offset 14, -4
 434:Generated_Source\PSoC5/cyfitter_cfg.c **** #ifdef CYGlobalIntDisable
 435:Generated_Source\PSoC5/cyfitter_cfg.c **** 	/* Disable interrupts by default. Let user enable if/when they want. */
 436:Generated_Source\PSoC5/cyfitter_cfg.c **** 	CYGlobalIntDisable
 555              		.loc 1 436 0
 556              	@ 436 "Generated_Source\PSoC5\cyfitter_cfg.c" 1
 557 0002 72B6     		CPSID   i
 558              	@ 0 "" 2
 437:Generated_Source\PSoC5/cyfitter_cfg.c **** #endif
 438:Generated_Source\PSoC5/cyfitter_cfg.c **** 
 439:Generated_Source\PSoC5/cyfitter_cfg.c **** 	/* Enable/Disable Debug functionality based on settings from System DWR */
 440:Generated_Source\PSoC5/cyfitter_cfg.c **** 	CY_SET_XTND_REG8((void CYFAR *)CYREG_MLOGIC_DEBUG, (CY_GET_XTND_REG8((void CYFAR *)CYREG_MLOGIC_DE
 559              		.loc 1 440 0
 560              		.thumb
 561 0004 374A     		ldr	r2, .L47
 562 0006 1378     		ldrb	r3, [r2]	@ zero_extendqisi2
 563 0008 43F00403 		orr	r3, r3, #4
 564 000c 1370     		strb	r3, [r2]
 565              	.LVL41:
 566              	.LBB3:
 441:Generated_Source\PSoC5/cyfitter_cfg.c **** 
 442:Generated_Source\PSoC5/cyfitter_cfg.c **** 	{
 443:Generated_Source\PSoC5/cyfitter_cfg.c **** 
 444:Generated_Source\PSoC5/cyfitter_cfg.c **** 		CYPACKED typedef struct {
 445:Generated_Source\PSoC5/cyfitter_cfg.c **** 			void CYFAR *address;
 446:Generated_Source\PSoC5/cyfitter_cfg.c **** 			uint16 size;
 447:Generated_Source\PSoC5/cyfitter_cfg.c **** 		} CYPACKED_ATTR cfg_memset_t;
 448:Generated_Source\PSoC5/cyfitter_cfg.c **** 
 449:Generated_Source\PSoC5/cyfitter_cfg.c **** 
 450:Generated_Source\PSoC5/cyfitter_cfg.c **** 		CYPACKED typedef struct {
 451:Generated_Source\PSoC5/cyfitter_cfg.c **** 			void CYFAR *dest;
 452:Generated_Source\PSoC5/cyfitter_cfg.c **** 			const void CYFAR *src;
 453:Generated_Source\PSoC5/cyfitter_cfg.c **** 			uint16 size;
 454:Generated_Source\PSoC5/cyfitter_cfg.c **** 		} CYPACKED_ATTR cfg_memcpy_t;
 455:Generated_Source\PSoC5/cyfitter_cfg.c **** 
 456:Generated_Source\PSoC5/cyfitter_cfg.c **** 		static const cfg_memset_t CYCODE cfg_memset_list [] = {
 457:Generated_Source\PSoC5/cyfitter_cfg.c **** 			/* address, size */
 458:Generated_Source\PSoC5/cyfitter_cfg.c **** 			{(void CYFAR *)(CYREG_TMR0_CFG0), 24u},
 459:Generated_Source\PSoC5/cyfitter_cfg.c **** 			{(void CYFAR *)(CYREG_PRT0_DR), 16u},
 460:Generated_Source\PSoC5/cyfitter_cfg.c **** 			{(void CYFAR *)(CYREG_PRT3_DR), 32u},
 461:Generated_Source\PSoC5/cyfitter_cfg.c **** 			{(void CYFAR *)(CYREG_PRT12_DR), 16u},
 462:Generated_Source\PSoC5/cyfitter_cfg.c **** 			{(void CYFAR *)(CYDEV_UCFG_B0_P0_U0_BASE), 3200u},
 463:Generated_Source\PSoC5/cyfitter_cfg.c **** 			{(void CYFAR *)(CYDEV_UCFG_B0_P6_ROUTE_BASE), 768u},
 464:Generated_Source\PSoC5/cyfitter_cfg.c **** 			{(void CYFAR *)(CYDEV_UCFG_B1_P2_U0_BASE), 2048u},
 465:Generated_Source\PSoC5/cyfitter_cfg.c **** 			{(void CYFAR *)(CYDEV_UCFG_DSI0_BASE), 2560u},
ARM GAS  C:\Users\sajibu\AppData\Local\Temp\ccNKBSfh.s 			page 20


 466:Generated_Source\PSoC5/cyfitter_cfg.c **** 			{(void CYFAR *)(CYDEV_UCFG_DSI12_BASE), 512u},
 467:Generated_Source\PSoC5/cyfitter_cfg.c **** 			{(void CYFAR *)(CYREG_BCTL0_MDCLK_EN), 32u},
 468:Generated_Source\PSoC5/cyfitter_cfg.c **** 		};
 469:Generated_Source\PSoC5/cyfitter_cfg.c **** 
 470:Generated_Source\PSoC5/cyfitter_cfg.c **** 		static const cfg_memcpy_t CYCODE cfg_memcpy_list [] = {
 471:Generated_Source\PSoC5/cyfitter_cfg.c **** 			/* dest, src, size */
 472:Generated_Source\PSoC5/cyfitter_cfg.c **** 			{(void CYFAR *)(CYDEV_UCFG_B0_P6_U1_BASE), BS_UDB_0_4_0_CONFIG_VAL, 128u},
 473:Generated_Source\PSoC5/cyfitter_cfg.c **** 		};
 474:Generated_Source\PSoC5/cyfitter_cfg.c **** 
 475:Generated_Source\PSoC5/cyfitter_cfg.c **** 		uint8 CYDATA i;
 476:Generated_Source\PSoC5/cyfitter_cfg.c **** 
 477:Generated_Source\PSoC5/cyfitter_cfg.c **** 		/* Zero out critical memory blocks before beginning configuration */
 478:Generated_Source\PSoC5/cyfitter_cfg.c **** 		for (i = 0u; i < (sizeof(cfg_memset_list)/sizeof(cfg_memset_list[0])); i++)
 567              		.loc 1 478 0
 568 000e 0024     		movs	r4, #0
 569 0010 0AE0     		b	.L42
 570              	.LVL42:
 571              	.L43:
 572              	.LBB4:
 479:Generated_Source\PSoC5/cyfitter_cfg.c **** 		{
 480:Generated_Source\PSoC5/cyfitter_cfg.c **** 			const cfg_memset_t CYCODE * CYDATA ms = &cfg_memset_list[i];
 481:Generated_Source\PSoC5/cyfitter_cfg.c **** 			CYMEMZERO(ms->address, (size_t)(uint32)(ms->size));
 573              		.loc 1 481 0 discriminator 3
 574 0012 3549     		ldr	r1, .L47+4
 575 0014 6300     		lsls	r3, r4, #1
 576 0016 1A19     		adds	r2, r3, r4
 577 0018 5200     		lsls	r2, r2, #1
 578 001a 0A44     		add	r2, r2, r1
 579 001c D068     		ldr	r0, [r2, #12]	@ unaligned
 580 001e 118A     		ldrh	r1, [r2, #16]
 581 0020 FFF7FEFF 		bl	CYMEMZERO
 582              	.LVL43:
 583              	.LBE4:
 478:Generated_Source\PSoC5/cyfitter_cfg.c **** 		{
 584              		.loc 1 478 0 discriminator 3
 585 0024 0134     		adds	r4, r4, #1
 586              	.LVL44:
 587 0026 E4B2     		uxtb	r4, r4
 588              	.LVL45:
 589              	.L42:
 478:Generated_Source\PSoC5/cyfitter_cfg.c **** 		{
 590              		.loc 1 478 0 is_stmt 0 discriminator 1
 591 0028 092C     		cmp	r4, #9
 592 002a F2D9     		bls	.L43
 593 002c 0024     		movs	r4, #0
 594              	.LVL46:
 595 002e 0BE0     		b	.L44
 596              	.LVL47:
 597              	.L45:
 598              	.LBB5:
 482:Generated_Source\PSoC5/cyfitter_cfg.c **** 		}
 483:Generated_Source\PSoC5/cyfitter_cfg.c **** 
 484:Generated_Source\PSoC5/cyfitter_cfg.c **** 		/* Copy device configuration data into registers */
 485:Generated_Source\PSoC5/cyfitter_cfg.c **** 		for (i = 0u; i < (sizeof(cfg_memcpy_list)/sizeof(cfg_memcpy_list[0])); i++)
 486:Generated_Source\PSoC5/cyfitter_cfg.c **** 		{
 487:Generated_Source\PSoC5/cyfitter_cfg.c **** 			const cfg_memcpy_t CYCODE * CYDATA mc = &cfg_memcpy_list[i];
 488:Generated_Source\PSoC5/cyfitter_cfg.c **** 			void * CYDATA destPtr = mc->dest;
ARM GAS  C:\Users\sajibu\AppData\Local\Temp\ccNKBSfh.s 			page 21


 599              		.loc 1 488 0 is_stmt 1 discriminator 3
 600 0030 2D49     		ldr	r1, .L47+4
 601 0032 A300     		lsls	r3, r4, #2
 602 0034 1A19     		adds	r2, r3, r4
 603 0036 5200     		lsls	r2, r2, #1
 604 0038 0A44     		add	r2, r2, r1
 605              	.LVL48:
 489:Generated_Source\PSoC5/cyfitter_cfg.c **** 			const void * CYDATA srcPtr = mc->src;
 490:Generated_Source\PSoC5/cyfitter_cfg.c **** 			uint16 CYDATA numBytes = mc->size;
 491:Generated_Source\PSoC5/cyfitter_cfg.c **** 			CYCONFIGCPY(destPtr, srcPtr, numBytes);
 606              		.loc 1 491 0 discriminator 3
 607 003a 906C     		ldr	r0, [r2, #72]	@ unaligned
 608              	.LVL49:
 609 003c D16C     		ldr	r1, [r2, #76]	@ unaligned
 610              	.LVL50:
 611 003e 8022     		movs	r2, #128
 612 0040 FFF7FEFF 		bl	CYCONFIGCPY
 613              	.LVL51:
 614              	.LBE5:
 485:Generated_Source\PSoC5/cyfitter_cfg.c **** 		{
 615              		.loc 1 485 0 discriminator 3
 616 0044 0134     		adds	r4, r4, #1
 617              	.LVL52:
 618 0046 E4B2     		uxtb	r4, r4
 619              	.LVL53:
 620              	.L44:
 485:Generated_Source\PSoC5/cyfitter_cfg.c **** 		{
 621              		.loc 1 485 0 is_stmt 0 discriminator 1
 622 0048 002C     		cmp	r4, #0
 623 004a F1D0     		beq	.L45
 492:Generated_Source\PSoC5/cyfitter_cfg.c **** 		}
 493:Generated_Source\PSoC5/cyfitter_cfg.c **** 
 494:Generated_Source\PSoC5/cyfitter_cfg.c **** 		cfg_write_bytes32(cy_cfg_addr_table, cy_cfg_data_table);
 624              		.loc 1 494 0 is_stmt 1
 625 004c 4FF09040 		mov	r0, #1207959552
 626 0050 2649     		ldr	r1, .L47+8
 627 0052 FFF7FEFF 		bl	cfg_write_bytes32
 628              	.LVL54:
 495:Generated_Source\PSoC5/cyfitter_cfg.c **** 
 496:Generated_Source\PSoC5/cyfitter_cfg.c **** 		/* Perform normal device configuration. Order is not critical for these items. */
 497:Generated_Source\PSoC5/cyfitter_cfg.c **** 		CY_SET_XTND_REG8((void CYFAR *)(CYREG_DSM0_CR3), 0x0Au);
 629              		.loc 1 497 0
 630 0056 0A25     		movs	r5, #10
 631 0058 254B     		ldr	r3, .L47+12
 632 005a 1D70     		strb	r5, [r3]
 498:Generated_Source\PSoC5/cyfitter_cfg.c **** 
 499:Generated_Source\PSoC5/cyfitter_cfg.c **** 		/* Enable digital routing */
 500:Generated_Source\PSoC5/cyfitter_cfg.c **** 		CY_SET_XTND_REG8((void CYFAR *)CYREG_BCTL0_BANK_CTL, CY_GET_XTND_REG8((void CYFAR *)CYREG_BCTL0_B
 633              		.loc 1 500 0
 634 005c 254A     		ldr	r2, .L47+16
 635 005e 1378     		ldrb	r3, [r2]	@ zero_extendqisi2
 636 0060 43F00203 		orr	r3, r3, #2
 637 0064 1370     		strb	r3, [r2]
 501:Generated_Source\PSoC5/cyfitter_cfg.c **** 		CY_SET_XTND_REG8((void CYFAR *)CYREG_BCTL1_BANK_CTL, CY_GET_XTND_REG8((void CYFAR *)CYREG_BCTL1_B
 638              		.loc 1 501 0
 639 0066 1032     		adds	r2, r2, #16
 640 0068 1378     		ldrb	r3, [r2]	@ zero_extendqisi2
ARM GAS  C:\Users\sajibu\AppData\Local\Temp\ccNKBSfh.s 			page 22


 641 006a 43F00203 		orr	r3, r3, #2
 642 006e 1370     		strb	r3, [r2]
 502:Generated_Source\PSoC5/cyfitter_cfg.c **** 
 503:Generated_Source\PSoC5/cyfitter_cfg.c **** 		/* Enable UDB array */
 504:Generated_Source\PSoC5/cyfitter_cfg.c **** 		CY_SET_XTND_REG8((void CYFAR *)CYREG_PM_ACT_CFG0, CY_GET_XTND_REG8((void CYFAR *)CYREG_PM_ACT_CFG
 643              		.loc 1 504 0
 644 0070 214C     		ldr	r4, .L47+20
 645              	.LVL55:
 646 0072 2378     		ldrb	r3, [r4]	@ zero_extendqisi2
 647 0074 43F04003 		orr	r3, r3, #64
 648 0078 2370     		strb	r3, [r4]
 505:Generated_Source\PSoC5/cyfitter_cfg.c **** 		CY_SET_XTND_REG8((void CYFAR *)CYREG_PM_AVAIL_CR2, CY_GET_XTND_REG8((void CYFAR *)CYREG_PM_AVAIL_
 649              		.loc 1 505 0
 650 007a A2F58632 		sub	r2, r2, #68608
 651 007e 513A     		subs	r2, r2, #81
 652 0080 1378     		ldrb	r3, [r2]	@ zero_extendqisi2
 653 0082 43F01003 		orr	r3, r3, #16
 654 0086 1370     		strb	r3, [r2]
 655              	.LBE3:
 506:Generated_Source\PSoC5/cyfitter_cfg.c **** 	}
 507:Generated_Source\PSoC5/cyfitter_cfg.c **** 
 508:Generated_Source\PSoC5/cyfitter_cfg.c **** 
 509:Generated_Source\PSoC5/cyfitter_cfg.c **** 	/* Perform second pass device configuration. These items must be configured in specific order afte
 510:Generated_Source\PSoC5/cyfitter_cfg.c **** 	CYCONFIGCPY((void CYFAR *)(CYREG_PRT15_DR), (const void CYFAR *)(BS_IOPINS0_8_VAL), 10u);
 656              		.loc 1 510 0
 657 0088 1C48     		ldr	r0, .L47+24
 658 008a 1D49     		ldr	r1, .L47+28
 659 008c 2A46     		mov	r2, r5
 660 008e FFF7FEFF 		bl	CYCONFIGCPY
 661              	.LVL56:
 511:Generated_Source\PSoC5/cyfitter_cfg.c **** 	CYCONFIGCPY((void CYFAR *)(CYREG_PRT1_DM0), (const void CYFAR *)(BS_IOPINS0_1_VAL), 8u);
 662              		.loc 1 511 0
 663 0092 1C48     		ldr	r0, .L47+32
 664 0094 1C49     		ldr	r1, .L47+36
 665 0096 0822     		movs	r2, #8
 666 0098 FFF7FEFF 		bl	CYCONFIGCPY
 667              	.LVL57:
 512:Generated_Source\PSoC5/cyfitter_cfg.c **** 	CYCONFIGCPY((void CYFAR *)(CYREG_PRT2_DM0), (const void CYFAR *)(BS_IOPINS0_2_VAL), 8u);
 668              		.loc 1 512 0
 669 009c 1B48     		ldr	r0, .L47+40
 670 009e 1C49     		ldr	r1, .L47+44
 671 00a0 0822     		movs	r2, #8
 672 00a2 FFF7FEFF 		bl	CYCONFIGCPY
 673              	.LVL58:
 513:Generated_Source\PSoC5/cyfitter_cfg.c **** 	CYCONFIGCPY((void CYFAR *)(CYREG_PRT5_DM0), (const void CYFAR *)(BS_IOPINS0_5_VAL), 8u);
 674              		.loc 1 513 0
 675 00a6 1B48     		ldr	r0, .L47+48
 676 00a8 1B49     		ldr	r1, .L47+52
 677 00aa 0822     		movs	r2, #8
 678 00ac FFF7FEFF 		bl	CYCONFIGCPY
 679              	.LVL59:
 514:Generated_Source\PSoC5/cyfitter_cfg.c **** 	CYCONFIGCPY((void CYFAR *)(CYREG_PRT6_DR), (const void CYFAR *)(BS_IOPINS0_6_VAL), 10u);
 680              		.loc 1 514 0
 681 00b0 1A48     		ldr	r0, .L47+56
 682 00b2 1B49     		ldr	r1, .L47+60
 683 00b4 2A46     		mov	r2, r5
 684 00b6 FFF7FEFF 		bl	CYCONFIGCPY
ARM GAS  C:\Users\sajibu\AppData\Local\Temp\ccNKBSfh.s 			page 23


 685              	.LVL60:
 515:Generated_Source\PSoC5/cyfitter_cfg.c **** 	/* Switch Boost to the precision bandgap reference from its internal reference */
 516:Generated_Source\PSoC5/cyfitter_cfg.c **** 	CY_SET_REG8((void CYXDATA *)CYREG_BOOST_CR2, (CY_GET_REG8((void CYXDATA *)CYREG_BOOST_CR2) | 0x08u
 686              		.loc 1 516 0
 687 00ba 1A4A     		ldr	r2, .L47+64
 688 00bc 1378     		ldrb	r3, [r2]	@ zero_extendqisi2
 689 00be 43F00803 		orr	r3, r3, #8
 690 00c2 1370     		strb	r3, [r2]
 517:Generated_Source\PSoC5/cyfitter_cfg.c **** 
 518:Generated_Source\PSoC5/cyfitter_cfg.c **** 	/* Set Flash Cycles based on max possible frequency in case a glitch occurs during ClockSetup(). *
 519:Generated_Source\PSoC5/cyfitter_cfg.c **** 	CY_SET_XTND_REG8((void CYFAR *)(CYREG_CACHE_CC_CTL), (((CYDEV_INSTRUCT_CACHE_ENABLED) != 0) ? 0x01
 691              		.loc 1 519 0
 692 00c4 184D     		ldr	r5, .L47+68
 693 00c6 0123     		movs	r3, #1
 694 00c8 2B70     		strb	r3, [r5]
 520:Generated_Source\PSoC5/cyfitter_cfg.c **** 	/* Setup clocks based on selections from Clock DWR */
 521:Generated_Source\PSoC5/cyfitter_cfg.c **** 	ClockSetup();
 695              		.loc 1 521 0
 696 00ca FFF7FEFF 		bl	ClockSetup
 697              	.LVL61:
 522:Generated_Source\PSoC5/cyfitter_cfg.c **** 	/* Set Flash Cycles based on newly configured 24.00MHz Bus Clock. */
 523:Generated_Source\PSoC5/cyfitter_cfg.c **** 	CY_SET_XTND_REG8((void CYFAR *)(CYREG_CACHE_CC_CTL), (((CYDEV_INSTRUCT_CACHE_ENABLED) != 0) ? 0x81
 698              		.loc 1 523 0
 699 00ce 8123     		movs	r3, #129
 700 00d0 2B70     		strb	r3, [r5]
 524:Generated_Source\PSoC5/cyfitter_cfg.c **** 
 525:Generated_Source\PSoC5/cyfitter_cfg.c **** 	/* Perform basic analog initialization to defaults */
 526:Generated_Source\PSoC5/cyfitter_cfg.c **** 	AnalogSetDefault();
 701              		.loc 1 526 0
 702 00d2 FFF7FEFF 		bl	AnalogSetDefault
 703              	.LVL62:
 527:Generated_Source\PSoC5/cyfitter_cfg.c **** 
 528:Generated_Source\PSoC5/cyfitter_cfg.c **** 	/* Configure alternate active mode */
 529:Generated_Source\PSoC5/cyfitter_cfg.c **** 	CYCONFIGCPY((void CYFAR *)CYDEV_PM_STBY_BASE, (const void CYFAR *)CYDEV_PM_ACT_BASE, 14u);
 704              		.loc 1 529 0
 705 00d6 1548     		ldr	r0, .L47+72
 706 00d8 2146     		mov	r1, r4
 707 00da 0E22     		movs	r2, #14
 708 00dc FFF7FEFF 		bl	CYCONFIGCPY
 709              	.LVL63:
 710 00e0 38BD     		pop	{r3, r4, r5, pc}
 711              	.L48:
 712 00e2 00BF     		.align	2
 713              	.L47:
 714 00e4 E8460040 		.word	1073759976
 715 00e8 00000000 		.word	.LANCHOR0
 716 00ec 84000048 		.word	1207959684
 717 00f0 83580040 		.word	1073764483
 718 00f4 03500140 		.word	1073827843
 719 00f8 A0430040 		.word	1073759136
 720 00fc F0510040 		.word	1073762800
 721 0100 38050048 		.word	1207960888
 722 0104 12510040 		.word	1073762578
 723 0108 44050048 		.word	1207960900
 724 010c 22510040 		.word	1073762594
 725 0110 4C050048 		.word	1207960908
 726 0114 52510040 		.word	1073762642
ARM GAS  C:\Users\sajibu\AppData\Local\Temp\ccNKBSfh.s 			page 24


 727 0118 54050048 		.word	1207960916
 728 011c 60510040 		.word	1073762656
 729 0120 5C050048 		.word	1207960924
 730 0124 22430040 		.word	1073759010
 731 0128 00480040 		.word	1073760256
 732 012c B0430040 		.word	1073759152
 733              		.cfi_endproc
 734              	.LFE10:
 735              		.size	cyfitter_cfg, .-cyfitter_cfg
 736              		.global	ADC_AMux__maskTable
 737              		.global	ADC_AMux__addrTable
 738              		.section	.rodata
 739              		.align	2
 740              		.set	.LANCHOR0,. + 0
 741              		.type	ADC_AMux__addrTable, %object
 742              		.size	ADC_AMux__addrTable, 8
 743              	ADC_AMux__addrTable:
 744 0000 035B0040 		.word	1073765123
 745 0004 24430040 		.word	1073759012
 746              		.type	ADC_AMux__maskTable, %object
 747              		.size	ADC_AMux__maskTable, 2
 748              	ADC_AMux__maskTable:
 749 0008 40       		.byte	64
 750 0009 00       		.byte	0
 751 000a 0000     		.space	2
 752              		.type	cfg_memset_list.4902, %object
 753              		.size	cfg_memset_list.4902, 60
 754              	cfg_memset_list.4902:
 755 000c 004F0040 		.word	1073762048
 756 0010 1800     		.short	24
 757 0012 00510040 		.4byte	1073762560
 758 0016 1000     		.short	16
 759 0018 30510040 		.word	1073762608
 760 001c 2000     		.short	32
 761 001e C0510040 		.4byte	1073762752
 762 0022 1000     		.short	16
 763 0024 00000140 		.word	1073807360
 764 0028 800C     		.short	3200
 765 002a 000D0140 		.4byte	1073810688
 766 002e 0003     		.short	768
 767 0030 00140140 		.word	1073812480
 768 0034 0008     		.short	2048
 769 0036 00400140 		.4byte	1073823744
 770 003a 000A     		.short	2560
 771 003c 004C0140 		.word	1073826816
 772 0040 0002     		.short	512
 773 0042 00500140 		.4byte	1073827840
 774 0046 2000     		.short	32
 775              		.type	cfg_memcpy_list.4903, %object
 776              		.size	cfg_memcpy_list.4903, 10
 777              	cfg_memcpy_list.4903:
 778 0048 800C0140 		.word	1073810560
 779 004c B8040048 		.word	1207960760
 780 0050 8000     		.short	128
 781 0052 0000     		.text
 782              	.Letext0:
 783              		.file 2 "c:\\program files (x86)\\cypress\\psoc creator\\4.0\\psoc creator\\import\\gnu\\arm\\4.9.
ARM GAS  C:\Users\sajibu\AppData\Local\Temp\ccNKBSfh.s 			page 25


 784              		.file 3 "Generated_Source\\PSoC5\\cytypes.h"
 785              		.file 4 "Generated_Source\\PSoC5\\CyLib.h"