ARM GAS  C:\Users\sajibu\AppData\Local\Temp\ccGhcX9q.s 			page 1


   1              		.syntax unified
   2              		.cpu cortex-m3
   3              		.fpu softvfp
   4              		.eabi_attribute 20, 1
   5              		.eabi_attribute 21, 1
   6              		.eabi_attribute 23, 3
   7              		.eabi_attribute 24, 1
   8              		.eabi_attribute 25, 1
   9              		.eabi_attribute 26, 1
  10              		.eabi_attribute 30, 1
  11              		.eabi_attribute 34, 1
  12              		.eabi_attribute 18, 4
  13              		.thumb
  14              		.file	"main.c"
  15              		.text
  16              	.Ltext0:
  17              		.cfi_sections	.debug_frame
  18              		.global	__aeabi_f2d
  19              		.global	__aeabi_dmul
  20              		.global	__aeabi_dsub
  21              		.global	__aeabi_ddiv
  22              		.global	__aeabi_d2f
  23              		.global	__aeabi_i2d
  24              		.section	.text.isr_10_Handler,"ax",%progbits
  25              		.align	2
  26              		.global	isr_10_Handler
  27              		.thumb
  28              		.thumb_func
  29              		.type	isr_10_Handler, %function
  30              	isr_10_Handler:
  31              	.LFB63:
  32              		.file 1 "main.c"
   1:main.c        **** /* ========================================
   2:main.c        ****  *
   3:main.c        ****  * Copyright Eduardo Inreriano, 2017
   4:main.c        ****  * All Rights Reserved
   5:main.c        ****  * UNPUBLISHED, LICENSED SOFTWARE.
   6:main.c        ****  *
   7:main.c        ****  * CONFIDENTIAL AND PROPRIETARY INFORMATION
   8:main.c        ****  * WHICH IS THE PROPERTY OF Eduardo Interiano.
   9:main.c        ****  *
  10:main.c        ****  * ========================================
  11:main.c        **** */
  12:main.c        **** #include "project.h"
  13:main.c        **** #include <stdio.h>
  14:main.c        **** #include <stdlib.h>
  15:main.c        **** 
  16:main.c        **** 
  17:main.c        **** /* Global variables */
  18:main.c        **** int16 data = 0;
  19:main.c        **** float volts = 0;
  20:main.c        **** float angulo = 0.0;
  21:main.c        **** int   ContInt=0;
  22:main.c        **** 
  23:main.c        **** int value_counter = 0;
  24:main.c        **** float distancia = 0;
  25:main.c        **** char imp[9];
ARM GAS  C:\Users\sajibu\AppData\Local\Temp\ccGhcX9q.s 			page 2


  26:main.c        **** 
  27:main.c        **** float tiempo = 0.0;
  28:main.c        **** 
  29:main.c        **** char displayStrLCD[16] = {'\0'};
  30:main.c        **** char displayStrUART[16] = {'\0'};
  31:main.c        **** 
  32:main.c        **** /* Interrupt prototype */
  33:main.c        **** CY_ISR_PROTO(isr_10_Handler);
  34:main.c        **** 
  35:main.c        **** // Interrupt handler declaration
  36:main.c        **** CY_ISR(isr_10_Handler)
  37:main.c        **** {
  33              		.loc 1 37 0
  34              		.cfi_startproc
  35              		@ args = 0, pretend = 0, frame = 0
  36              		@ frame_needed = 0, uses_anonymous_args = 0
  37 0000 10B5     		push	{r4, lr}
  38              		.cfi_def_cfa_offset 8
  39              		.cfi_offset 4, -8
  40              		.cfi_offset 14, -4
  38:main.c        ****     // Denotes interrupt begin
  39:main.c        **** 
  40:main.c        ****     ADC_IsEndConversion(ADC_WAIT_FOR_RESULT);
  41              		.loc 1 40 0
  42 0002 0020     		movs	r0, #0
  43 0004 FFF7FEFF 		bl	ADC_IsEndConversion
  44              	.LVL0:
  41:main.c        ****     data = ADC_GetResult16();
  45              		.loc 1 41 0
  46 0008 FFF7FEFF 		bl	ADC_GetResult16
  47              	.LVL1:
  48 000c 2A4C     		ldr	r4, .L5+24
  49 000e 2080     		strh	r0, [r4]	@ movhi
  42:main.c        ****     volts = ADC_CountsTo_Volts(data);
  50              		.loc 1 42 0
  51 0010 FFF7FEFF 		bl	ADC_CountsTo_Volts
  52              	.LVL2:
  53 0014 6060     		str	r0, [r4, #4]	@ float
  43:main.c        ****     angulo = (15.523*volts - 34.891)*3.1416/180;    
  54              		.loc 1 43 0
  55 0016 FFF7FEFF 		bl	__aeabi_f2d
  56              	.LVL3:
  57 001a 21A3     		adr	r3, .L5
  58 001c D3E90023 		ldrd	r2, [r3]
  59 0020 FFF7FEFF 		bl	__aeabi_dmul
  60              	.LVL4:
  61 0024 20A3     		adr	r3, .L5+8
  62 0026 D3E90023 		ldrd	r2, [r3]
  63 002a FFF7FEFF 		bl	__aeabi_dsub
  64              	.LVL5:
  65 002e 20A3     		adr	r3, .L5+16
  66 0030 D3E90023 		ldrd	r2, [r3]
  67 0034 FFF7FEFF 		bl	__aeabi_dmul
  68              	.LVL6:
  69 0038 0022     		movs	r2, #0
  70 003a 204B     		ldr	r3, .L5+28
  71 003c FFF7FEFF 		bl	__aeabi_ddiv
ARM GAS  C:\Users\sajibu\AppData\Local\Temp\ccGhcX9q.s 			page 3


  72              	.LVL7:
  73 0040 FFF7FEFF 		bl	__aeabi_d2f
  74              	.LVL8:
  75 0044 A060     		str	r0, [r4, #8]	@ float
  44:main.c        ****     
  45:main.c        ****     if (ContInt>10){
  76              		.loc 1 45 0
  77 0046 E368     		ldr	r3, [r4, #12]
  78 0048 0A2B     		cmp	r3, #10
  79 004a 22DD     		ble	.L2
  46:main.c        ****         Trigger_out_Write(1);
  80              		.loc 1 46 0
  81 004c 0120     		movs	r0, #1
  82 004e FFF7FEFF 		bl	Trigger_out_Write
  83              	.LVL9:
  47:main.c        ****         CyDelayUs(10);
  84              		.loc 1 47 0
  85 0052 0A20     		movs	r0, #10
  86 0054 FFF7FEFF 		bl	CyDelayUs
  87              	.LVL10:
  48:main.c        ****         Trigger_out_Write(0);
  88              		.loc 1 48 0
  89 0058 0020     		movs	r0, #0
  90 005a FFF7FEFF 		bl	Trigger_out_Write
  91              	.LVL11:
  49:main.c        ****         CyDelayUs(1000);
  92              		.loc 1 49 0
  93 005e 4FF47A70 		mov	r0, #1000
  94 0062 FFF7FEFF 		bl	CyDelayUs
  95              	.LVL12:
  96              	.L3:
  50:main.c        ****         while (echo_Read()==1){}
  97              		.loc 1 50 0 discriminator 1
  98 0066 FFF7FEFF 		bl	echo_Read
  99              	.LVL13:
 100 006a 0128     		cmp	r0, #1
 101 006c FBD0     		beq	.L3
  51:main.c        ****         value_counter=65535-Timer2_ReadCounter();
 102              		.loc 1 51 0
 103 006e FFF7FEFF 		bl	Timer2_ReadCounter
 104              	.LVL14:
 105 0072 C0F57F40 		rsb	r0, r0, #65280
 106 0076 FF30     		adds	r0, r0, #255
 107 0078 0F4C     		ldr	r4, .L5+24
 108 007a 2061     		str	r0, [r4, #16]
  52:main.c        ****         distancia=value_counter/58.0;
 109              		.loc 1 52 0
 110 007c FFF7FEFF 		bl	__aeabi_i2d
 111              	.LVL15:
 112 0080 0022     		movs	r2, #0
 113 0082 0F4B     		ldr	r3, .L5+32
 114 0084 FFF7FEFF 		bl	__aeabi_ddiv
 115              	.LVL16:
 116 0088 FFF7FEFF 		bl	__aeabi_d2f
 117              	.LVL17:
 118 008c 6061     		str	r0, [r4, #20]	@ float
  53:main.c        ****         ContInt=0;
ARM GAS  C:\Users\sajibu\AppData\Local\Temp\ccGhcX9q.s 			page 4


 119              		.loc 1 53 0
 120 008e 0023     		movs	r3, #0
 121 0090 E360     		str	r3, [r4, #12]
 122              	.L2:
  54:main.c        ****     }
  55:main.c        ****     ContInt++;
 123              		.loc 1 55 0
 124 0092 094A     		ldr	r2, .L5+24
 125 0094 D368     		ldr	r3, [r2, #12]
 126 0096 0133     		adds	r3, r3, #1
 127 0098 D360     		str	r3, [r2, #12]
 128 009a 10BD     		pop	{r4, pc}
 129              	.L6:
 130 009c AFF30080 		.align	3
 131              	.L5:
 132 00a0 B29DEFA7 		.word	-1477468750
 133 00a4 C60B2F40 		.word	1076825030
 134 00a8 355EBA49 		.word	1236950581
 135 00ac 0C724140 		.word	1078030860
 136 00b0 A7E8482E 		.word	776530087
 137 00b4 FF210940 		.word	1074340351
 138 00b8 00000000 		.word	.LANCHOR0
 139 00bc 00806640 		.word	1080459264
 140 00c0 00004D40 		.word	1078788096
 141              		.cfi_endproc
 142              	.LFE63:
 143              		.size	isr_10_Handler, .-isr_10_Handler
 144 00c4 AFF30080 		.section	.text.main,"ax",%progbits
 145              		.align	2
 146              		.global	main
 147              		.thumb
 148              		.thumb_func
 149              		.type	main, %function
 150              	main:
 151              	.LFB64:
  56:main.c        ****    
  57:main.c        **** }
  58:main.c        **** 
  59:main.c        **** int main(void)
  60:main.c        **** {    
 152              		.loc 1 60 0
 153              		.cfi_startproc
 154              		@ Volatile: function does not return.
 155              		@ args = 0, pretend = 0, frame = 0
 156              		@ frame_needed = 0, uses_anonymous_args = 0
 157 0000 80B5     		push	{r7, lr}
 158              		.cfi_def_cfa_offset 8
 159              		.cfi_offset 7, -8
 160              		.cfi_offset 14, -4
 161 0002 82B0     		sub	sp, sp, #8
 162              		.cfi_def_cfa_offset 16
  61:main.c        ****     /* Place your startup code here (e.g. MyInst_Start()) */
  62:main.c        ****     ADC_Start();
 163              		.loc 1 62 0
 164 0004 FFF7FEFF 		bl	ADC_Start
 165              	.LVL18:
  63:main.c        ****     ADC_StartConvert();
ARM GAS  C:\Users\sajibu\AppData\Local\Temp\ccGhcX9q.s 			page 5


 166              		.loc 1 63 0
 167 0008 FFF7FEFF 		bl	ADC_StartConvert
 168              	.LVL19:
  64:main.c        ****     Timer2_Start();
 169              		.loc 1 64 0
 170 000c FFF7FEFF 		bl	Timer2_Start
 171              	.LVL20:
  65:main.c        ****     Timer_Start();
 172              		.loc 1 65 0
 173 0010 FFF7FEFF 		bl	Timer_Start
 174              	.LVL21:
  66:main.c        ****     
  67:main.c        ****     T1_Start();//Temporizacion del motor
 175              		.loc 1 67 0
 176 0014 FFF7FEFF 		bl	T1_Start
 177              	.LVL22:
  68:main.c        ****     
  69:main.c        ****     // Interrrup process init with StartEx not simple Start
  70:main.c        ****     isr_10_StartEx(isr_10_Handler);
 178              		.loc 1 70 0
 179 0018 3248     		ldr	r0, .L10
 180 001a FFF7FEFF 		bl	isr_10_StartEx
 181              	.LVL23:
  71:main.c        **** 
  72:main.c        ****     CyGlobalIntEnable; /* Enable global interrupts. */
 182              		.loc 1 72 0
 183              	@ 72 "main.c" 1
 184 001e 62B6     		CPSIE   i
 185              	@ 0 "" 2
  73:main.c        **** 
  74:main.c        ****     LCD_Start();
 186              		.loc 1 74 0
 187              		.thumb
 188 0020 FFF7FEFF 		bl	LCD_Start
 189              	.LVL24:
  75:main.c        ****     LCD_ClearDisplay();
 190              		.loc 1 75 0
 191 0024 0120     		movs	r0, #1
 192 0026 FFF7FEFF 		bl	LCD_WriteControl
 193              	.LVL25:
  76:main.c        ****     LCD_Position(0,0);
 194              		.loc 1 76 0
 195 002a 0020     		movs	r0, #0
 196 002c 0146     		mov	r1, r0
 197 002e FFF7FEFF 		bl	LCD_Position
 198              	.LVL26:
  77:main.c        ****     LCD_PrintString("Angulo - Dist");
 199              		.loc 1 77 0
 200 0032 2D48     		ldr	r0, .L10+4
 201 0034 FFF7FEFF 		bl	LCD_PrintString
 202              	.LVL27:
  78:main.c        ****     
  79:main.c        ****     UART_Start();
 203              		.loc 1 79 0
 204 0038 FFF7FEFF 		bl	UART_Start
 205              	.LVL28:
  80:main.c        ****     sprintf(displayStrLCD,"%.2f r %.1f cm",volts, distancia);
ARM GAS  C:\Users\sajibu\AppData\Local\Temp\ccGhcX9q.s 			page 6


 206              		.loc 1 80 0
 207 003c 2B4C     		ldr	r4, .L10+8
 208 003e 04F11805 		add	r5, r4, #24
 209 0042 6068     		ldr	r0, [r4, #4]	@ float
 210 0044 FFF7FEFF 		bl	__aeabi_f2d
 211              	.LVL29:
 212 0048 0646     		mov	r6, r0
 213 004a 0F46     		mov	r7, r1
 214 004c 6069     		ldr	r0, [r4, #20]	@ float
 215 004e FFF7FEFF 		bl	__aeabi_f2d
 216              	.LVL30:
 217 0052 CDE90001 		strd	r0, [sp]
 218 0056 2846     		mov	r0, r5
 219 0058 2549     		ldr	r1, .L10+12
 220 005a 3246     		mov	r2, r6
 221 005c 3B46     		mov	r3, r7
 222 005e FFF7FEFF 		bl	sprintf
 223              	.LVL31:
  81:main.c        ****     LCD_Position(1,0);
 224              		.loc 1 81 0
 225 0062 0120     		movs	r0, #1
 226 0064 0021     		movs	r1, #0
 227 0066 FFF7FEFF 		bl	LCD_Position
 228              	.LVL32:
  82:main.c        ****     LCD_PrintString(displayStrLCD);
 229              		.loc 1 82 0
 230 006a 2846     		mov	r0, r5
 231 006c FFF7FEFF 		bl	LCD_PrintString
 232              	.LVL33:
  83:main.c        ****         
  84:main.c        ****     UART_PutString(displayStrUART);
 233              		.loc 1 84 0
 234 0070 04F12800 		add	r0, r4, #40
 235 0074 FFF7FEFF 		bl	UART_PutString
 236              	.LVL34:
  85:main.c        ****     UART_PutString("\n\r");    
 237              		.loc 1 85 0
 238 0078 1E48     		ldr	r0, .L10+16
 239 007a FFF7FEFF 		bl	UART_PutString
 240              	.LVL35:
 241              	.L8:
  86:main.c        ****     // Infinite loop
  87:main.c        ****     for(;;)
  88:main.c        ****     {  
  89:main.c        ****        sprintf(displayStrLCD,"%.2f r %.1f cm",volts, distancia);
 242              		.loc 1 89 0 discriminator 1
 243 007e 1B4C     		ldr	r4, .L10+8
 244 0080 04F11808 		add	r8, r4, #24
 245 0084 6068     		ldr	r0, [r4, #4]	@ float
 246 0086 FFF7FEFF 		bl	__aeabi_f2d
 247              	.LVL36:
 248 008a 0646     		mov	r6, r0
 249 008c 0F46     		mov	r7, r1
 250 008e 6069     		ldr	r0, [r4, #20]	@ float
 251 0090 FFF7FEFF 		bl	__aeabi_f2d
 252              	.LVL37:
 253 0094 CDE90001 		strd	r0, [sp]
ARM GAS  C:\Users\sajibu\AppData\Local\Temp\ccGhcX9q.s 			page 7


 254 0098 4046     		mov	r0, r8
 255 009a 1549     		ldr	r1, .L10+12
 256 009c 3246     		mov	r2, r6
 257 009e 3B46     		mov	r3, r7
 258 00a0 FFF7FEFF 		bl	sprintf
 259              	.LVL38:
  90:main.c        ****        sprintf(displayStrUART,"%.2f, %.1f",angulo,distancia);
 260              		.loc 1 90 0 discriminator 1
 261 00a4 04F12805 		add	r5, r4, #40
 262 00a8 A068     		ldr	r0, [r4, #8]	@ float
 263 00aa FFF7FEFF 		bl	__aeabi_f2d
 264              	.LVL39:
 265 00ae 0646     		mov	r6, r0
 266 00b0 0F46     		mov	r7, r1
 267 00b2 6069     		ldr	r0, [r4, #20]	@ float
 268 00b4 FFF7FEFF 		bl	__aeabi_f2d
 269              	.LVL40:
 270 00b8 CDE90001 		strd	r0, [sp]
 271 00bc 2846     		mov	r0, r5
 272 00be 0E49     		ldr	r1, .L10+20
 273 00c0 3246     		mov	r2, r6
 274 00c2 3B46     		mov	r3, r7
 275 00c4 FFF7FEFF 		bl	sprintf
 276              	.LVL41:
  91:main.c        ****        LCD_Position(1,0);
 277              		.loc 1 91 0 discriminator 1
 278 00c8 0120     		movs	r0, #1
 279 00ca 0021     		movs	r1, #0
 280 00cc FFF7FEFF 		bl	LCD_Position
 281              	.LVL42:
  92:main.c        ****        LCD_PrintString(displayStrLCD);
 282              		.loc 1 92 0 discriminator 1
 283 00d0 4046     		mov	r0, r8
 284 00d2 FFF7FEFF 		bl	LCD_PrintString
 285              	.LVL43:
  93:main.c        ****     
  94:main.c        ****        UART_PutString(displayStrUART);
 286              		.loc 1 94 0 discriminator 1
 287 00d6 2846     		mov	r0, r5
 288 00d8 FFF7FEFF 		bl	UART_PutString
 289              	.LVL44:
  95:main.c        ****        UART_PutString("\n\r");
 290              		.loc 1 95 0 discriminator 1
 291 00dc 0548     		ldr	r0, .L10+16
 292 00de FFF7FEFF 		bl	UART_PutString
 293              	.LVL45:
  96:main.c        ****     } // for
 294              		.loc 1 96 0 discriminator 1
 295 00e2 CCE7     		b	.L8
 296              	.L11:
 297              		.align	2
 298              	.L10:
 299 00e4 00000000 		.word	isr_10_Handler
 300 00e8 00000000 		.word	.LC0
 301 00ec 00000000 		.word	.LANCHOR0
 302 00f0 10000000 		.word	.LC1
 303 00f4 20000000 		.word	.LC2
ARM GAS  C:\Users\sajibu\AppData\Local\Temp\ccGhcX9q.s 			page 8


 304 00f8 24000000 		.word	.LC3
 305              		.cfi_endproc
 306              	.LFE64:
 307              		.size	main, .-main
 308              		.global	displayStrUART
 309              		.global	displayStrLCD
 310              		.global	tiempo
 311              		.comm	imp,9,4
 312              		.global	distancia
 313              		.global	value_counter
 314              		.global	ContInt
 315              		.global	angulo
 316              		.global	volts
 317              		.global	data
 318              		.section	.rodata.str1.4,"aMS",%progbits,1
 319              		.align	2
 320              	.LC0:
 321 0000 416E6775 		.ascii	"Angulo - Dist\000"
 321      6C6F202D 
 321      20446973 
 321      7400
 322 000e 0000     		.space	2
 323              	.LC1:
 324 0010 252E3266 		.ascii	"%.2f r %.1f cm\000"
 324      20722025 
 324      2E316620 
 324      636D00
 325 001f 00       		.space	1
 326              	.LC2:
 327 0020 0A0D00   		.ascii	"\012\015\000"
 328 0023 00       		.space	1
 329              	.LC3:
 330 0024 252E3266 		.ascii	"%.2f, %.1f\000"
 330      2C20252E 
 330      316600
 331 002f 00       		.bss
 332              		.align	2
 333              		.set	.LANCHOR0,. + 0
 334              		.type	data, %object
 335              		.size	data, 2
 336              	data:
 337 0000 0000     		.space	2
 338 0002 0000     		.space	2
 339              		.type	volts, %object
 340              		.size	volts, 4
 341              	volts:
 342 0004 00000000 		.space	4
 343              		.type	angulo, %object
 344              		.size	angulo, 4
 345              	angulo:
 346 0008 00000000 		.space	4
 347              		.type	ContInt, %object
 348              		.size	ContInt, 4
 349              	ContInt:
 350 000c 00000000 		.space	4
 351              		.type	value_counter, %object
 352              		.size	value_counter, 4
ARM GAS  C:\Users\sajibu\AppData\Local\Temp\ccGhcX9q.s 			page 9


 353              	value_counter:
 354 0010 00000000 		.space	4
 355              		.type	distancia, %object
 356              		.size	distancia, 4
 357              	distancia:
 358 0014 00000000 		.space	4
 359              		.type	displayStrLCD, %object
 360              		.size	displayStrLCD, 16
 361              	displayStrLCD:
 362 0018 00000000 		.space	16
 362      00000000 
 362      00000000 
 362      00000000 
 363              		.type	displayStrUART, %object
 364              		.size	displayStrUART, 16
 365              	displayStrUART:
 366 0028 00000000 		.space	16
 366      00000000 
 366      00000000 
 366      00000000 
 367              		.type	tiempo, %object
 368              		.size	tiempo, 4
 369              	tiempo:
 370 0038 00000000 		.space	4
 371              		.text
 372              	.Letext0:
 373              		.file 2 "c:\\program files (x86)\\cypress\\psoc creator\\4.0\\psoc creator\\import\\gnu\\arm\\4.9.
 374              		.file 3 "c:\\program files (x86)\\cypress\\psoc creator\\4.0\\psoc creator\\import\\gnu\\arm\\4.9.
 375              		.file 4 "Generated_Source\\PSoC5/cytypes.h"
 376              		.file 5 "Generated_Source\\PSoC5/core_cm3.h"
 377              		.file 6 "Generated_Source\\PSoC5/ADC.h"
 378              		.file 7 "Generated_Source\\PSoC5/Trigger_out.h"
 379              		.file 8 "Generated_Source\\PSoC5/CyLib.h"
 380              		.file 9 "Generated_Source\\PSoC5/echo.h"
 381              		.file 10 "Generated_Source\\PSoC5/Timer2.h"
 382              		.file 11 "Generated_Source\\PSoC5/Timer.h"
 383              		.file 12 "Generated_Source\\PSoC5/T1.h"
 384              		.file 13 "Generated_Source\\PSoC5/isr_10.h"
 385              		.file 14 "Generated_Source\\PSoC5/LCD.h"
 386              		.file 15 "Generated_Source\\PSoC5/UART.h"
 387              		.file 16 "c:\\program files (x86)\\cypress\\psoc creator\\4.0\\psoc creator\\import\\gnu\\arm\\4.9